                                      1 ;--------------------------------------------------------
                                      2 ; File Created by SDCC : free open source ANSI-C Compiler
                                      3 ; Version 4.1.6 #12439 (MINGW32)
                                      4 ;--------------------------------------------------------
                                      5 	.module main
                                      6 	.optsdcc -mgbz80
                                      7 	
                                      8 ;--------------------------------------------------------
                                      9 ; Public variables in this module
                                     10 ;--------------------------------------------------------
                                     11 	.globl _main
                                     12 	.globl _invader_hit
                                     13 	.globl _turret_hit
                                     14 	.globl _invader_fire
                                     15 	.globl _move_anim_inv
                                     16 	.globl _gotoxy
                                     17 	.globl _font_set
                                     18 	.globl _font_load
                                     19 	.globl _font_init
                                     20 	.globl _rand
                                     21 	.globl _printf
                                     22 	.globl _set_sprite_data
                                     23 	.globl _set_bkg_tiles
                                     24 	.globl _set_bkg_data
                                     25 	.globl _wait_vbl_done
                                     26 	.globl _waitpad
                                     27 	.globl _joypad
                                     28 	.globl _been_pressed
                                     29 	.globl _game_over
                                     30 	.globl _lives
                                     31 	.globl _score
                                     32 	.globl _boom_play
                                     33 	.globl _blast_delay
                                     34 	.globl _by
                                     35 	.globl _bx
                                     36 	.globl _been_hit
                                     37 	.globl _inv_fired
                                     38 	.globl _inv_fire_pause
                                     39 	.globl _inv_shot_y
                                     40 	.globl _inv_shot_x
                                     41 	.globl _i_dir
                                     42 	.globl _ix_speed
                                     43 	.globl _inv_frame
                                     44 	.globl _i_anim_delay
                                     45 	.globl _invader_y
                                     46 	.globl _invader_x
                                     47 	.globl _explosion_play
                                     48 	.globl _turret_anim_delay
                                     49 	.globl _turret_exp_frame
                                     50 	.globl _turret_blast_delay
                                     51 	.globl _turret_been_hit
                                     52 	.globl _sy
                                     53 	.globl _sx
                                     54 	.globl _shot_fired
                                     55 	.globl _turret_y
                                     56 	.globl _turret_x
                                     57 	.globl _sprites_invader
                                     58 	.globl _sprites_turret
                                     59 	.globl _rand_x
                                     60 	.globl _title_map
                                     61 	.globl _title_data
                                     62 ;--------------------------------------------------------
                                     63 ; special function registers
                                     64 ;--------------------------------------------------------
                                     65 ;--------------------------------------------------------
                                     66 ; ram data
                                     67 ;--------------------------------------------------------
                                     68 	.area _DATA
      000000                         69 _rand_x::
      000000                         70 	.ds 2
                                     71 ;--------------------------------------------------------
                                     72 ; ram data
                                     73 ;--------------------------------------------------------
                                     74 	.area _INITIALIZED
      000000                         75 _sprites_turret::
      000000                         76 	.ds 256
      000100                         77 _sprites_invader::
      000100                         78 	.ds 256
      000200                         79 _turret_x::
      000200                         80 	.ds 2
      000202                         81 _turret_y::
      000202                         82 	.ds 2
      000204                         83 _shot_fired::
      000204                         84 	.ds 1
      000205                         85 _sx::
      000205                         86 	.ds 2
      000207                         87 _sy::
      000207                         88 	.ds 2
      000209                         89 _turret_been_hit::
      000209                         90 	.ds 1
      00020A                         91 _turret_blast_delay::
      00020A                         92 	.ds 2
      00020C                         93 _turret_exp_frame::
      00020C                         94 	.ds 2
      00020E                         95 _turret_anim_delay::
      00020E                         96 	.ds 2
      000210                         97 _explosion_play::
      000210                         98 	.ds 1
      000211                         99 _invader_x::
      000211                        100 	.ds 2
      000213                        101 _invader_y::
      000213                        102 	.ds 2
      000215                        103 _i_anim_delay::
      000215                        104 	.ds 2
      000217                        105 _inv_frame::
      000217                        106 	.ds 2
      000219                        107 _ix_speed::
      000219                        108 	.ds 2
      00021B                        109 _i_dir::
      00021B                        110 	.ds 2
      00021D                        111 _inv_shot_x::
      00021D                        112 	.ds 2
      00021F                        113 _inv_shot_y::
      00021F                        114 	.ds 2
      000221                        115 _inv_fire_pause::
      000221                        116 	.ds 2
      000223                        117 _inv_fired::
      000223                        118 	.ds 1
      000224                        119 _been_hit::
      000224                        120 	.ds 1
      000225                        121 _bx::
      000225                        122 	.ds 2
      000227                        123 _by::
      000227                        124 	.ds 2
      000229                        125 _blast_delay::
      000229                        126 	.ds 2
      00022B                        127 _boom_play::
      00022B                        128 	.ds 1
      00022C                        129 _score::
      00022C                        130 	.ds 2
      00022E                        131 _lives::
      00022E                        132 	.ds 2
      000230                        133 _game_over::
      000230                        134 	.ds 1
      000231                        135 _been_pressed::
      000231                        136 	.ds 1
                                    137 ;--------------------------------------------------------
                                    138 ; absolute external ram data
                                    139 ;--------------------------------------------------------
                                    140 	.area _DABS (ABS)
                                    141 ;--------------------------------------------------------
                                    142 ; global & static initialisations
                                    143 ;--------------------------------------------------------
                                    144 	.area _HOME
                                    145 	.area _GSINIT
                                    146 	.area _GSFINAL
                                    147 	.area _GSINIT
                                    148 ;--------------------------------------------------------
                                    149 ; Home
                                    150 ;--------------------------------------------------------
                                    151 	.area _HOME
                                    152 	.area _HOME
                                    153 ;--------------------------------------------------------
                                    154 ; code
                                    155 ;--------------------------------------------------------
                                    156 	.area _CODE
                                    157 ;main.c:67: void move_anim_inv() { 
                                    158 ;	---------------------------------
                                    159 ; Function move_anim_inv
                                    160 ; ---------------------------------
      000000                        161 _move_anim_inv::
                                    162 ;main.c:68: i_anim_delay -=1;
                                    163 ;setupPair	HL
                                    164 ;setupPair	HL
      000000 21r15r02               165 	ld	hl, #_i_anim_delay
                                    166 ;setupPair	HL
      000003 2A                     167 	ld	a, (hl+)
      000004 5F                     168 	ld	e, a
                                    169 ;setupPair	HL
      000005 3A                     170 	ld	a, (hl-)
      000006 57                     171 	ld	d, a
      000007 1B                     172 	dec	de
                                    173 ;setupPair	HL
      000008 7B                     174 	ld	a, e
      000009 22                     175 	ld	(hl+), a
      00000A 72                     176 	ld	(hl), d
                                    177 ;main.c:70: if(i_anim_delay < 0) {
                                    178 ;setupPair	HL
      00000B 7E                     179 	ld	a, (hl)
      00000C CB 7F                  180 	bit	7, a
      00000E CAr34r01               181 	jp	Z, 00116$
                                    182 ;main.c:71: i_anim_delay = 20;
                                    183 ;setupPair	HL
      000011 2B                     184 	dec	hl
                                    185 ;setupPair	HL
      000012 3E 14                  186 	ld	a, #0x14
      000014 22                     187 	ld	(hl+), a
      000015 AF                     188 	xor	a, a
      000016 77                     189 	ld	(hl), a
                                    190 ;main.c:73: inv_frame += 1;        
                                    191 ;setupPair	HL
      000017 21r17r02               192 	ld	hl, #_inv_frame
      00001A 34                     193 	inc	(hl)
      00001B 20 02                  194 	jr	NZ, 00195$
                                    195 ;setupPair	HL
      00001D 23                     196 	inc	hl
      00001E 34                     197 	inc	(hl)
      00001F                        198 00195$:
                                    199 ;main.c:74: if (inv_frame > 2) {
                                    200 ;setupPair	HL
      00001F 21r17r02               201 	ld	hl, #_inv_frame
      000022 3E 02                  202 	ld	a, #0x02
      000024 96                     203 	sub	a, (hl)
      000025 23                     204 	inc	hl
      000026 3E 00                  205 	ld	a, #0x00
      000028 9E                     206 	sbc	a, (hl)
      000029 3E 00                  207 	ld	a, #0x00
      00002B 57                     208 	ld	d, a
      00002C CB 7E                  209 	bit	7, (hl)
      00002E 28 07                  210 	jr	Z, 00196$
      000030 CB 7A                  211 	bit	7, d
      000032 20 08                  212 	jr	NZ, 00197$
      000034 BF                     213 	cp	a, a
      000035 18 05                  214 	jr	00197$
      000037                        215 00196$:
      000037 CB 7A                  216 	bit	7, d
      000039 28 01                  217 	jr	Z, 00197$
      00003B 37                     218 	scf
      00003C                        219 00197$:
      00003C 30 08                  220 	jr	NC, 00102$
                                    221 ;main.c:75: inv_frame = 1;
                                    222 ;setupPair	HL
      00003E 21r17r02               223 	ld	hl, #_inv_frame
                                    224 ;setupPair	HL
      000041 3E 01                  225 	ld	a, #0x01
      000043 22                     226 	ld	(hl+), a
      000044 AF                     227 	xor	a, a
      000045 77                     228 	ld	(hl), a
      000046                        229 00102$:
                                    230 ;main.c:78: if(!(been_hit)) {
                                    231 ;setupPair	HL
      000046 21r24r02               232 	ld	hl, #_been_hit
      000049 CB 46                  233 	bit	0, (hl)
      00004B C2r34r01               234 	jp	NZ, 00116$
                                    235 ;main.c:80: if ((i_dir == 1) && (invader_x <= 140)) {
                                    236 ;setupPair	HL
      00004E 21r1Br02               237 	ld	hl, #_i_dir
                                    238 ;setupPair	HL
      000051 2A                     239 	ld	a, (hl+)
      000052 3D                     240 	dec	a
      000053 B6                     241 	or	a, (hl)
      000054 20 5F                  242 	jr	NZ, 00106$
                                    243 ;setupPair	HL
      000056 21r11r02               244 	ld	hl, #_invader_x
      000059 3E 8C                  245 	ld	a, #0x8c
      00005B 96                     246 	sub	a, (hl)
      00005C 23                     247 	inc	hl
      00005D 3E 00                  248 	ld	a, #0x00
      00005F 9E                     249 	sbc	a, (hl)
      000060 3E 00                  250 	ld	a, #0x00
      000062 57                     251 	ld	d, a
      000063 CB 7E                  252 	bit	7, (hl)
      000065 28 07                  253 	jr	Z, 00200$
      000067 CB 7A                  254 	bit	7, d
      000069 20 08                  255 	jr	NZ, 00201$
      00006B BF                     256 	cp	a, a
      00006C 18 05                  257 	jr	00201$
      00006E                        258 00200$:
      00006E CB 7A                  259 	bit	7, d
      000070 28 01                  260 	jr	Z, 00201$
      000072 37                     261 	scf
      000073                        262 00201$:
      000073 38 40                  263 	jr	C, 00106$
                                    264 ;main.c:81: invader_x += ix_speed;
                                    265 ;setupPair	HL
      000075 FAr11r02               266 	ld	a, (#_invader_x)
                                    267 ;setupPair	HL
      000078 21r19r02               268 	ld	hl, #_ix_speed
      00007B 86                     269 	add	a, (hl)
                                    270 ;setupPair	HL
      00007C 21r11r02               271 	ld	hl, #_invader_x
                                    272 ;setupPair	HL
      00007F 22                     273 	ld	(hl+), a
      000080 7E                     274 	ld	a, (hl)
                                    275 ;setupPair	HL
      000081 21r1Ar02               276 	ld	hl, #_ix_speed + 1
      000084 8E                     277 	adc	a, (hl)
                                    278 ;setupPair	HL
      000085 21r12r02               279 	ld	hl, #_invader_x + 1
                                    280 ;main.c:82: if (invader_x >= 140) {                    
                                    281 ;setupPair	HL
      000088 32                     282 	ld	(hl-), a
      000089 2A                     283 	ld	a, (hl+)
      00008A D6 8C                  284 	sub	a, #0x8c
      00008C 7E                     285 	ld	a, (hl)
      00008D DE 00                  286 	sbc	a, #0x00
      00008F 56                     287 	ld	d, (hl)
      000090 3E 00                  288 	ld	a, #0x00
      000092 CB 7F                  289 	bit	7,a
      000094 28 07                  290 	jr	Z, 00202$
      000096 CB 7A                  291 	bit	7, d
      000098 20 08                  292 	jr	NZ, 00203$
      00009A BF                     293 	cp	a, a
      00009B 18 05                  294 	jr	00203$
      00009D                        295 00202$:
      00009D CB 7A                  296 	bit	7, d
      00009F 28 01                  297 	jr	Z, 00203$
      0000A1 37                     298 	scf
      0000A2                        299 00203$:
      0000A2 38 11                  300 	jr	C, 00106$
                                    301 ;main.c:83: invader_y += 4; // step down
                                    302 ;setupPair	HL
      0000A4 21r13r02               303 	ld	hl, #_invader_y
      0000A7 7E                     304 	ld	a, (hl)
      0000A8 C6 04                  305 	add	a, #0x04
                                    306 ;setupPair	HL
                                    307 ;setupPair	HL
      0000AA 22                     308 	ld	(hl+), a
      0000AB 7E                     309 	ld	a, (hl)
      0000AC CE 00                  310 	adc	a, #0x00
                                    311 ;setupPair	HL
      0000AE 77                     312 	ld	(hl), a
                                    313 ;main.c:84: i_dir = 0;
      0000AF AF                     314 	xor	a, a
                                    315 ;setupPair	HL
      0000B0 21r1Br02               316 	ld	hl, #_i_dir
                                    317 ;setupPair	HL
      0000B3 22                     318 	ld	(hl+), a
      0000B4 77                     319 	ld	(hl), a
      0000B5                        320 00106$:
                                    321 ;main.c:88: if ((i_dir < 1) && (invader_x >= 24)) {
                                    322 ;setupPair	HL
      0000B5 21r1Br02               323 	ld	hl, #_i_dir
      0000B8 2A                     324 	ld	a, (hl+)
      0000B9 D6 01                  325 	sub	a, #0x01
      0000BB 7E                     326 	ld	a, (hl)
      0000BC DE 00                  327 	sbc	a, #0x00
      0000BE 56                     328 	ld	d, (hl)
      0000BF 3E 00                  329 	ld	a, #0x00
      0000C1 CB 7F                  330 	bit	7,a
      0000C3 28 07                  331 	jr	Z, 00204$
      0000C5 CB 7A                  332 	bit	7, d
      0000C7 20 08                  333 	jr	NZ, 00205$
      0000C9 BF                     334 	cp	a, a
      0000CA 18 05                  335 	jr	00205$
      0000CC                        336 00204$:
      0000CC CB 7A                  337 	bit	7, d
      0000CE 28 01                  338 	jr	Z, 00205$
      0000D0 37                     339 	scf
      0000D1                        340 00205$:
      0000D1 30 61                  341 	jr	NC, 00116$
                                    342 ;setupPair	HL
      0000D3 21r11r02               343 	ld	hl, #_invader_x
      0000D6 2A                     344 	ld	a, (hl+)
      0000D7 D6 18                  345 	sub	a, #0x18
      0000D9 7E                     346 	ld	a, (hl)
      0000DA DE 00                  347 	sbc	a, #0x00
      0000DC 56                     348 	ld	d, (hl)
      0000DD 3E 00                  349 	ld	a, #0x00
      0000DF CB 7F                  350 	bit	7,a
      0000E1 28 07                  351 	jr	Z, 00206$
      0000E3 CB 7A                  352 	bit	7, d
      0000E5 20 08                  353 	jr	NZ, 00207$
      0000E7 BF                     354 	cp	a, a
      0000E8 18 05                  355 	jr	00207$
      0000EA                        356 00206$:
      0000EA CB 7A                  357 	bit	7, d
      0000EC 28 01                  358 	jr	Z, 00207$
      0000EE 37                     359 	scf
      0000EF                        360 00207$:
      0000EF 38 43                  361 	jr	C, 00116$
                                    362 ;main.c:89: invader_x -= ix_speed;
                                    363 ;setupPair	HL
      0000F1 FAr11r02               364 	ld	a, (#_invader_x)
                                    365 ;setupPair	HL
      0000F4 21r19r02               366 	ld	hl, #_ix_speed
      0000F7 96                     367 	sub	a, (hl)
                                    368 ;setupPair	HL
      0000F8 21r11r02               369 	ld	hl, #_invader_x
                                    370 ;setupPair	HL
      0000FB 22                     371 	ld	(hl+), a
      0000FC 7E                     372 	ld	a, (hl)
                                    373 ;setupPair	HL
      0000FD 21r1Ar02               374 	ld	hl, #_ix_speed + 1
      000100 9E                     375 	sbc	a, (hl)
                                    376 ;setupPair	HL
      000101 21r12r02               377 	ld	hl, #_invader_x + 1
                                    378 ;main.c:90: if (invader_x <= 24) {                    
                                    379 ;setupPair	HL
      000104 32                     380 	ld	(hl-), a
      000105 3E 18                  381 	ld	a, #0x18
      000107 96                     382 	sub	a, (hl)
      000108 23                     383 	inc	hl
      000109 3E 00                  384 	ld	a, #0x00
      00010B 9E                     385 	sbc	a, (hl)
      00010C 3E 00                  386 	ld	a, #0x00
      00010E 57                     387 	ld	d, a
      00010F CB 7E                  388 	bit	7, (hl)
      000111 28 07                  389 	jr	Z, 00208$
      000113 CB 7A                  390 	bit	7, d
      000115 20 08                  391 	jr	NZ, 00209$
      000117 BF                     392 	cp	a, a
      000118 18 05                  393 	jr	00209$
      00011A                        394 00208$:
      00011A CB 7A                  395 	bit	7, d
      00011C 28 01                  396 	jr	Z, 00209$
      00011E 37                     397 	scf
      00011F                        398 00209$:
      00011F 38 13                  399 	jr	C, 00116$
                                    400 ;main.c:91: invader_y += 4; // step down
                                    401 ;setupPair	HL
      000121 21r13r02               402 	ld	hl, #_invader_y
      000124 7E                     403 	ld	a, (hl)
      000125 C6 04                  404 	add	a, #0x04
                                    405 ;setupPair	HL
                                    406 ;setupPair	HL
      000127 22                     407 	ld	(hl+), a
      000128 7E                     408 	ld	a, (hl)
      000129 CE 00                  409 	adc	a, #0x00
                                    410 ;setupPair	HL
      00012B 77                     411 	ld	(hl), a
                                    412 ;main.c:92: i_dir = 1;           
                                    413 ;setupPair	HL
      00012C 21r1Br02               414 	ld	hl, #_i_dir
                                    415 ;setupPair	HL
      00012F 3E 01                  416 	ld	a, #0x01
      000131 22                     417 	ld	(hl+), a
      000132 AF                     418 	xor	a, a
      000133 77                     419 	ld	(hl), a
      000134                        420 00116$:
                                    421 ;main.c:98: if (!(been_hit)) {
                                    422 ;setupPair	HL
      000134 21r24r02               423 	ld	hl, #_been_hit
      000137 CB 46                  424 	bit	0, (hl)
      000139 20 29                  425 	jr	NZ, 00123$
                                    426 ;main.c:99: if(inv_frame == 1) {
                                    427 ;setupPair	HL
      00013B 21r17r02               428 	ld	hl, #_inv_frame
                                    429 ;setupPair	HL
      00013E 2A                     430 	ld	a, (hl+)
      00013F 3D                     431 	dec	a
      000140 B6                     432 	or	a, (hl)
      000141 20 0C                  433 	jr	NZ, 00120$
                                    434 ;c:/gbdk/include/gb/gb.h:1174: shadow_OAM[nb].tile=tile;
      000143 21r22r00               435 	ld	hl, #(_shadow_OAM + 34)
      000146 36 10                  436 	ld	(hl), #0x10
      000148 21r26r00               437 	ld	hl, #(_shadow_OAM + 38)
      00014B 36 12                  438 	ld	(hl), #0x12
                                    439 ;main.c:101: set_sprite_tile( 9, 18);             
      00014D 18 1F                  440 	jr	00124$
      00014F                        441 00120$:
                                    442 ;main.c:103: else if(inv_frame == 2) {
                                    443 ;setupPair	HL
      00014F 21r17r02               444 	ld	hl, #_inv_frame
                                    445 ;setupPair	HL
      000152 2A                     446 	ld	a, (hl+)
      000153 D6 02                  447 	sub	a, #0x02
      000155 B6                     448 	or	a, (hl)
      000156 20 16                  449 	jr	NZ, 00124$
                                    450 ;c:/gbdk/include/gb/gb.h:1174: shadow_OAM[nb].tile=tile;
      000158 21r22r00               451 	ld	hl, #(_shadow_OAM + 34)
      00015B 36 14                  452 	ld	(hl), #0x14
      00015D 21r26r00               453 	ld	hl, #(_shadow_OAM + 38)
      000160 36 16                  454 	ld	(hl), #0x16
                                    455 ;main.c:105: set_sprite_tile(9, 22);             
      000162 18 0A                  456 	jr	00124$
      000164                        457 00123$:
                                    458 ;c:/gbdk/include/gb/gb.h:1174: shadow_OAM[nb].tile=tile;
      000164 21r22r00               459 	ld	hl, #(_shadow_OAM + 34)
      000167 36 18                  460 	ld	(hl), #0x18
      000169 21r26r00               461 	ld	hl, #(_shadow_OAM + 38)
      00016C 36 1A                  462 	ld	(hl), #0x1a
                                    463 ;main.c:110: set_sprite_tile(9, 26); 
      00016E                        464 00124$:
                                    465 ;main.c:113: move_sprite(8, invader_x, invader_y);
                                    466 ;setupPair	HL
      00016E 21r13r02               467 	ld	hl, #_invader_y
      000171 46                     468 	ld	b, (hl)
                                    469 ;setupPair	HL
      000172 21r11r02               470 	ld	hl, #_invader_x
      000175 4E                     471 	ld	c, (hl)
                                    472 ;c:/gbdk/include/gb/gb.h:1247: OAM_item_t * itm = &shadow_OAM[nb];
      000176 21r20r00               473 	ld	hl, #(_shadow_OAM + 32)
                                    474 ;c:/gbdk/include/gb/gb.h:1248: itm->y=y, itm->x=x;
      000179 78                     475 	ld	a, b
      00017A 22                     476 	ld	(hl+), a
      00017B 71                     477 	ld	(hl), c
                                    478 ;main.c:114: move_sprite(9, invader_x + 8, invader_y);
                                    479 ;setupPair	HL
      00017C 21r13r02               480 	ld	hl, #_invader_y
      00017F 46                     481 	ld	b, (hl)
                                    482 ;setupPair	HL
      000180 FAr11r02               483 	ld	a, (#_invader_x)
      000183 C6 08                  484 	add	a, #0x08
      000185 4F                     485 	ld	c, a
                                    486 ;c:/gbdk/include/gb/gb.h:1247: OAM_item_t * itm = &shadow_OAM[nb];
      000186 21r24r00               487 	ld	hl, #(_shadow_OAM + 36)
                                    488 ;c:/gbdk/include/gb/gb.h:1248: itm->y=y, itm->x=x;
      000189 78                     489 	ld	a, b
      00018A 22                     490 	ld	(hl+), a
      00018B 71                     491 	ld	(hl), c
                                    492 ;main.c:114: move_sprite(9, invader_x + 8, invader_y);
                                    493 ;main.c:115: }
      00018C C9                     494 	ret
      00018D                        495 _title_data:
      00018D 00                     496 	.db #0x00	; 0
      00018E 00                     497 	.db #0x00	; 0
      00018F 00                     498 	.db #0x00	; 0
      000190 00                     499 	.db #0x00	; 0
      000191 00                     500 	.db #0x00	; 0
      000192 00                     501 	.db #0x00	; 0
      000193 00                     502 	.db #0x00	; 0
      000194 00                     503 	.db #0x00	; 0
      000195 00                     504 	.db #0x00	; 0
      000196 00                     505 	.db #0x00	; 0
      000197 00                     506 	.db #0x00	; 0
      000198 00                     507 	.db #0x00	; 0
      000199 00                     508 	.db #0x00	; 0
      00019A 00                     509 	.db #0x00	; 0
      00019B 00                     510 	.db #0x00	; 0
      00019C 00                     511 	.db #0x00	; 0
      00019D 00                     512 	.db #0x00	; 0
      00019E 00                     513 	.db #0x00	; 0
      00019F 00                     514 	.db #0x00	; 0
      0001A0 00                     515 	.db #0x00	; 0
      0001A1 00                     516 	.db #0x00	; 0
      0001A2 00                     517 	.db #0x00	; 0
      0001A3 00                     518 	.db #0x00	; 0
      0001A4 00                     519 	.db #0x00	; 0
      0001A5 00                     520 	.db #0x00	; 0
      0001A6 00                     521 	.db #0x00	; 0
      0001A7 00                     522 	.db #0x00	; 0
      0001A8 00                     523 	.db #0x00	; 0
      0001A9 00                     524 	.db #0x00	; 0
      0001AA 00                     525 	.db #0x00	; 0
      0001AB 1F                     526 	.db #0x1f	; 31
      0001AC 1F                     527 	.db #0x1f	; 31
      0001AD 00                     528 	.db #0x00	; 0
      0001AE 00                     529 	.db #0x00	; 0
      0001AF 00                     530 	.db #0x00	; 0
      0001B0 00                     531 	.db #0x00	; 0
      0001B1 00                     532 	.db #0x00	; 0
      0001B2 00                     533 	.db #0x00	; 0
      0001B3 00                     534 	.db #0x00	; 0
      0001B4 00                     535 	.db #0x00	; 0
      0001B5 00                     536 	.db #0x00	; 0
      0001B6 00                     537 	.db #0x00	; 0
      0001B7 00                     538 	.db #0x00	; 0
      0001B8 00                     539 	.db #0x00	; 0
      0001B9 00                     540 	.db #0x00	; 0
      0001BA 00                     541 	.db #0x00	; 0
      0001BB 3C                     542 	.db #0x3c	; 60
      0001BC 3C                     543 	.db #0x3c	; 60
      0001BD 1F                     544 	.db #0x1f	; 31
      0001BE 1F                     545 	.db #0x1f	; 31
      0001BF 1F                     546 	.db #0x1f	; 31
      0001C0 1F                     547 	.db #0x1f	; 31
      0001C1 1F                     548 	.db #0x1f	; 31
      0001C2 1F                     549 	.db #0x1f	; 31
      0001C3 00                     550 	.db #0x00	; 0
      0001C4 00                     551 	.db #0x00	; 0
      0001C5 00                     552 	.db #0x00	; 0
      0001C6 00                     553 	.db #0x00	; 0
      0001C7 00                     554 	.db #0x00	; 0
      0001C8 00                     555 	.db #0x00	; 0
      0001C9 1F                     556 	.db #0x1f	; 31
      0001CA 1F                     557 	.db #0x1f	; 31
      0001CB 1F                     558 	.db #0x1f	; 31
      0001CC 1F                     559 	.db #0x1f	; 31
      0001CD 00                     560 	.db #0x00	; 0
      0001CE 00                     561 	.db #0x00	; 0
      0001CF 00                     562 	.db #0x00	; 0
      0001D0 00                     563 	.db #0x00	; 0
      0001D1 00                     564 	.db #0x00	; 0
      0001D2 00                     565 	.db #0x00	; 0
      0001D3 E0                     566 	.db #0xe0	; 224
      0001D4 E0                     567 	.db #0xe0	; 224
      0001D5 E0                     568 	.db #0xe0	; 224
      0001D6 E0                     569 	.db #0xe0	; 224
      0001D7 E0                     570 	.db #0xe0	; 224
      0001D8 E0                     571 	.db #0xe0	; 224
      0001D9 FF                     572 	.db #0xff	; 255
      0001DA FF                     573 	.db #0xff	; 255
      0001DB FF                     574 	.db #0xff	; 255
      0001DC FF                     575 	.db #0xff	; 255
      0001DD 00                     576 	.db #0x00	; 0
      0001DE 00                     577 	.db #0x00	; 0
      0001DF 00                     578 	.db #0x00	; 0
      0001E0 00                     579 	.db #0x00	; 0
      0001E1 00                     580 	.db #0x00	; 0
      0001E2 00                     581 	.db #0x00	; 0
      0001E3 01                     582 	.db #0x01	; 1
      0001E4 01                     583 	.db #0x01	; 1
      0001E5 01                     584 	.db #0x01	; 1
      0001E6 01                     585 	.db #0x01	; 1
      0001E7 01                     586 	.db #0x01	; 1
      0001E8 01                     587 	.db #0x01	; 1
      0001E9 FF                     588 	.db #0xff	; 255
      0001EA FF                     589 	.db #0xff	; 255
      0001EB FF                     590 	.db #0xff	; 255
      0001EC FF                     591 	.db #0xff	; 255
      0001ED 3C                     592 	.db #0x3c	; 60
      0001EE 3C                     593 	.db #0x3c	; 60
      0001EF 3C                     594 	.db #0x3c	; 60
      0001F0 3C                     595 	.db #0x3c	; 60
      0001F1 3C                     596 	.db #0x3c	; 60
      0001F2 3C                     597 	.db #0x3c	; 60
      0001F3 C0                     598 	.db #0xc0	; 192
      0001F4 C0                     599 	.db #0xc0	; 192
      0001F5 C0                     600 	.db #0xc0	; 192
      0001F6 C0                     601 	.db #0xc0	; 192
      0001F7 C0                     602 	.db #0xc0	; 192
      0001F8 C0                     603 	.db #0xc0	; 192
      0001F9 FC                     604 	.db #0xfc	; 252
      0001FA FC                     605 	.db #0xfc	; 252
      0001FB FC                     606 	.db #0xfc	; 252
      0001FC FC                     607 	.db #0xfc	; 252
      0001FD 00                     608 	.db #0x00	; 0
      0001FE 00                     609 	.db #0x00	; 0
      0001FF 00                     610 	.db #0x00	; 0
      000200 00                     611 	.db #0x00	; 0
      000201 01                     612 	.db #0x01	; 1
      000202 01                     613 	.db #0x01	; 1
      000203 01                     614 	.db #0x01	; 1
      000204 01                     615 	.db #0x01	; 1
      000205 01                     616 	.db #0x01	; 1
      000206 01                     617 	.db #0x01	; 1
      000207 01                     618 	.db #0x01	; 1
      000208 01                     619 	.db #0x01	; 1
      000209 0F                     620 	.db #0x0f	; 15
      00020A 0F                     621 	.db #0x0f	; 15
      00020B 0F                     622 	.db #0x0f	; 15
      00020C 0F                     623 	.db #0x0f	; 15
      00020D 1F                     624 	.db #0x1f	; 31
      00020E 1F                     625 	.db #0x1f	; 31
      00020F 1F                     626 	.db #0x1f	; 31
      000210 1F                     627 	.db #0x1f	; 31
      000211 FF                     628 	.db #0xff	; 255
      000212 FF                     629 	.db #0xff	; 255
      000213 FF                     630 	.db #0xff	; 255
      000214 FF                     631 	.db #0xff	; 255
      000215 FF                     632 	.db #0xff	; 255
      000216 FF                     633 	.db #0xff	; 255
      000217 FF                     634 	.db #0xff	; 255
      000218 FF                     635 	.db #0xff	; 255
      000219 FF                     636 	.db #0xff	; 255
      00021A FF                     637 	.db #0xff	; 255
      00021B FF                     638 	.db #0xff	; 255
      00021C FF                     639 	.db #0xff	; 255
      00021D FF                     640 	.db #0xff	; 255
      00021E FF                     641 	.db #0xff	; 255
      00021F FF                     642 	.db #0xff	; 255
      000220 FF                     643 	.db #0xff	; 255
      000221 1F                     644 	.db #0x1f	; 31
      000222 1F                     645 	.db #0x1f	; 31
      000223 1F                     646 	.db #0x1f	; 31
      000224 1F                     647 	.db #0x1f	; 31
      000225 1F                     648 	.db #0x1f	; 31
      000226 1F                     649 	.db #0x1f	; 31
      000227 1F                     650 	.db #0x1f	; 31
      000228 1F                     651 	.db #0x1f	; 31
      000229 FF                     652 	.db #0xff	; 255
      00022A FF                     653 	.db #0xff	; 255
      00022B FF                     654 	.db #0xff	; 255
      00022C FF                     655 	.db #0xff	; 255
      00022D FF                     656 	.db #0xff	; 255
      00022E FF                     657 	.db #0xff	; 255
      00022F FF                     658 	.db #0xff	; 255
      000230 FF                     659 	.db #0xff	; 255
      000231 FE                     660 	.db #0xfe	; 254
      000232 FE                     661 	.db #0xfe	; 254
      000233 FE                     662 	.db #0xfe	; 254
      000234 FE                     663 	.db #0xfe	; 254
      000235 FE                     664 	.db #0xfe	; 254
      000236 FE                     665 	.db #0xfe	; 254
      000237 FE                     666 	.db #0xfe	; 254
      000238 FE                     667 	.db #0xfe	; 254
      000239 FF                     668 	.db #0xff	; 255
      00023A FF                     669 	.db #0xff	; 255
      00023B FF                     670 	.db #0xff	; 255
      00023C FF                     671 	.db #0xff	; 255
      00023D FC                     672 	.db #0xfc	; 252
      00023E FC                     673 	.db #0xfc	; 252
      00023F FC                     674 	.db #0xfc	; 252
      000240 FC                     675 	.db #0xfc	; 252
      000241 3F                     676 	.db #0x3f	; 63
      000242 3F                     677 	.db #0x3f	; 63
      000243 3F                     678 	.db #0x3f	; 63
      000244 3F                     679 	.db #0x3f	; 63
      000245 3F                     680 	.db #0x3f	; 63
      000246 3F                     681 	.db #0x3f	; 63
      000247 3F                     682 	.db #0x3f	; 63
      000248 3F                     683 	.db #0x3f	; 63
      000249 FF                     684 	.db #0xff	; 255
      00024A FF                     685 	.db #0xff	; 255
      00024B FF                     686 	.db #0xff	; 255
      00024C FF                     687 	.db #0xff	; 255
      00024D 00                     688 	.db #0x00	; 0
      00024E 00                     689 	.db #0x00	; 0
      00024F 00                     690 	.db #0x00	; 0
      000250 00                     691 	.db #0x00	; 0
      000251 C0                     692 	.db #0xc0	; 192
      000252 C0                     693 	.db #0xc0	; 192
      000253 C0                     694 	.db #0xc0	; 192
      000254 C0                     695 	.db #0xc0	; 192
      000255 C0                     696 	.db #0xc0	; 192
      000256 C0                     697 	.db #0xc0	; 192
      000257 C0                     698 	.db #0xc0	; 192
      000258 C0                     699 	.db #0xc0	; 192
      000259 FC                     700 	.db #0xfc	; 252
      00025A FC                     701 	.db #0xfc	; 252
      00025B FC                     702 	.db #0xfc	; 252
      00025C FC                     703 	.db #0xfc	; 252
      00025D 0F                     704 	.db #0x0f	; 15
      00025E 0F                     705 	.db #0x0f	; 15
      00025F 0F                     706 	.db #0x0f	; 15
      000260 0F                     707 	.db #0x0f	; 15
      000261 0F                     708 	.db #0x0f	; 15
      000262 0F                     709 	.db #0x0f	; 15
      000263 0F                     710 	.db #0x0f	; 15
      000264 0F                     711 	.db #0x0f	; 15
      000265 0F                     712 	.db #0x0f	; 15
      000266 0F                     713 	.db #0x0f	; 15
      000267 0E                     714 	.db #0x0e	; 14
      000268 0E                     715 	.db #0x0e	; 14
      000269 0E                     716 	.db #0x0e	; 14
      00026A 0E                     717 	.db #0x0e	; 14
      00026B 0E                     718 	.db #0x0e	; 14
      00026C 0E                     719 	.db #0x0e	; 14
      00026D FF                     720 	.db #0xff	; 255
      00026E FF                     721 	.db #0xff	; 255
      00026F FF                     722 	.db #0xff	; 255
      000270 FF                     723 	.db #0xff	; 255
      000271 FF                     724 	.db #0xff	; 255
      000272 FF                     725 	.db #0xff	; 255
      000273 FF                     726 	.db #0xff	; 255
      000274 FF                     727 	.db #0xff	; 255
      000275 FF                     728 	.db #0xff	; 255
      000276 FF                     729 	.db #0xff	; 255
      000277 1F                     730 	.db #0x1f	; 31
      000278 1F                     731 	.db #0x1f	; 31
      000279 1F                     732 	.db #0x1f	; 31
      00027A 1F                     733 	.db #0x1f	; 31
      00027B 1F                     734 	.db #0x1f	; 31
      00027C 1F                     735 	.db #0x1f	; 31
      00027D FF                     736 	.db #0xff	; 255
      00027E FF                     737 	.db #0xff	; 255
      00027F FF                     738 	.db #0xff	; 255
      000280 FF                     739 	.db #0xff	; 255
      000281 FF                     740 	.db #0xff	; 255
      000282 FF                     741 	.db #0xff	; 255
      000283 FF                     742 	.db #0xff	; 255
      000284 FF                     743 	.db #0xff	; 255
      000285 FF                     744 	.db #0xff	; 255
      000286 FF                     745 	.db #0xff	; 255
      000287 00                     746 	.db #0x00	; 0
      000288 00                     747 	.db #0x00	; 0
      000289 00                     748 	.db #0x00	; 0
      00028A 00                     749 	.db #0x00	; 0
      00028B 00                     750 	.db #0x00	; 0
      00028C 00                     751 	.db #0x00	; 0
      00028D FF                     752 	.db #0xff	; 255
      00028E FF                     753 	.db #0xff	; 255
      00028F FF                     754 	.db #0xff	; 255
      000290 FF                     755 	.db #0xff	; 255
      000291 FF                     756 	.db #0xff	; 255
      000292 FF                     757 	.db #0xff	; 255
      000293 FF                     758 	.db #0xff	; 255
      000294 FF                     759 	.db #0xff	; 255
      000295 FF                     760 	.db #0xff	; 255
      000296 FF                     761 	.db #0xff	; 255
      000297 3C                     762 	.db #0x3c	; 60
      000298 3C                     763 	.db #0x3c	; 60
      000299 3C                     764 	.db #0x3c	; 60
      00029A 3C                     765 	.db #0x3c	; 60
      00029B 3C                     766 	.db #0x3c	; 60
      00029C 3C                     767 	.db #0x3c	; 60
      00029D FC                     768 	.db #0xfc	; 252
      00029E FC                     769 	.db #0xfc	; 252
      00029F FC                     770 	.db #0xfc	; 252
      0002A0 FC                     771 	.db #0xfc	; 252
      0002A1 FC                     772 	.db #0xfc	; 252
      0002A2 FC                     773 	.db #0xfc	; 252
      0002A3 FC                     774 	.db #0xfc	; 252
      0002A4 FC                     775 	.db #0xfc	; 252
      0002A5 FC                     776 	.db #0xfc	; 252
      0002A6 FC                     777 	.db #0xfc	; 252
      0002A7 3C                     778 	.db #0x3c	; 60
      0002A8 3C                     779 	.db #0x3c	; 60
      0002A9 3C                     780 	.db #0x3c	; 60
      0002AA 3C                     781 	.db #0x3c	; 60
      0002AB 3C                     782 	.db #0x3c	; 60
      0002AC 3C                     783 	.db #0x3c	; 60
      0002AD 0E                     784 	.db #0x0e	; 14
      0002AE 0E                     785 	.db #0x0e	; 14
      0002AF 00                     786 	.db #0x00	; 0
      0002B0 00                     787 	.db #0x00	; 0
      0002B1 00                     788 	.db #0x00	; 0
      0002B2 00                     789 	.db #0x00	; 0
      0002B3 00                     790 	.db #0x00	; 0
      0002B4 00                     791 	.db #0x00	; 0
      0002B5 00                     792 	.db #0x00	; 0
      0002B6 00                     793 	.db #0x00	; 0
      0002B7 00                     794 	.db #0x00	; 0
      0002B8 00                     795 	.db #0x00	; 0
      0002B9 00                     796 	.db #0x00	; 0
      0002BA 00                     797 	.db #0x00	; 0
      0002BB 00                     798 	.db #0x00	; 0
      0002BC 00                     799 	.db #0x00	; 0
      0002BD 1F                     800 	.db #0x1f	; 31
      0002BE 1F                     801 	.db #0x1f	; 31
      0002BF 00                     802 	.db #0x00	; 0
      0002C0 00                     803 	.db #0x00	; 0
      0002C1 00                     804 	.db #0x00	; 0
      0002C2 00                     805 	.db #0x00	; 0
      0002C3 00                     806 	.db #0x00	; 0
      0002C4 00                     807 	.db #0x00	; 0
      0002C5 00                     808 	.db #0x00	; 0
      0002C6 00                     809 	.db #0x00	; 0
      0002C7 00                     810 	.db #0x00	; 0
      0002C8 00                     811 	.db #0x00	; 0
      0002C9 00                     812 	.db #0x00	; 0
      0002CA 00                     813 	.db #0x00	; 0
      0002CB 00                     814 	.db #0x00	; 0
      0002CC 00                     815 	.db #0x00	; 0
      0002CD 00                     816 	.db #0x00	; 0
      0002CE 00                     817 	.db #0x00	; 0
      0002CF FE                     818 	.db #0xfe	; 254
      0002D0 FE                     819 	.db #0xfe	; 254
      0002D1 FE                     820 	.db #0xfe	; 254
      0002D2 FE                     821 	.db #0xfe	; 254
      0002D3 FE                     822 	.db #0xfe	; 254
      0002D4 FE                     823 	.db #0xfe	; 254
      0002D5 FE                     824 	.db #0xfe	; 254
      0002D6 FE                     825 	.db #0xfe	; 254
      0002D7 00                     826 	.db #0x00	; 0
      0002D8 00                     827 	.db #0x00	; 0
      0002D9 00                     828 	.db #0x00	; 0
      0002DA 00                     829 	.db #0x00	; 0
      0002DB 00                     830 	.db #0x00	; 0
      0002DC 00                     831 	.db #0x00	; 0
      0002DD 00                     832 	.db #0x00	; 0
      0002DE 00                     833 	.db #0x00	; 0
      0002DF 1F                     834 	.db #0x1f	; 31
      0002E0 1F                     835 	.db #0x1f	; 31
      0002E1 1F                     836 	.db #0x1f	; 31
      0002E2 1F                     837 	.db #0x1f	; 31
      0002E3 1F                     838 	.db #0x1f	; 31
      0002E4 1F                     839 	.db #0x1f	; 31
      0002E5 1F                     840 	.db #0x1f	; 31
      0002E6 1F                     841 	.db #0x1f	; 31
      0002E7 00                     842 	.db #0x00	; 0
      0002E8 00                     843 	.db #0x00	; 0
      0002E9 00                     844 	.db #0x00	; 0
      0002EA 00                     845 	.db #0x00	; 0
      0002EB 00                     846 	.db #0x00	; 0
      0002EC 00                     847 	.db #0x00	; 0
      0002ED 3C                     848 	.db #0x3c	; 60
      0002EE 3C                     849 	.db #0x3c	; 60
      0002EF C0                     850 	.db #0xc0	; 192
      0002F0 C0                     851 	.db #0xc0	; 192
      0002F1 C0                     852 	.db #0xc0	; 192
      0002F2 C0                     853 	.db #0xc0	; 192
      0002F3 C0                     854 	.db #0xc0	; 192
      0002F4 C0                     855 	.db #0xc0	; 192
      0002F5 C0                     856 	.db #0xc0	; 192
      0002F6 C0                     857 	.db #0xc0	; 192
      0002F7 00                     858 	.db #0x00	; 0
      0002F8 00                     859 	.db #0x00	; 0
      0002F9 00                     860 	.db #0x00	; 0
      0002FA 00                     861 	.db #0x00	; 0
      0002FB 00                     862 	.db #0x00	; 0
      0002FC 00                     863 	.db #0x00	; 0
      0002FD 3C                     864 	.db #0x3c	; 60
      0002FE 3C                     865 	.db #0x3c	; 60
      0002FF 00                     866 	.db #0x00	; 0
      000300 00                     867 	.db #0x00	; 0
      000301 00                     868 	.db #0x00	; 0
      000302 00                     869 	.db #0x00	; 0
      000303 00                     870 	.db #0x00	; 0
      000304 00                     871 	.db #0x00	; 0
      000305 00                     872 	.db #0x00	; 0
      000306 00                     873 	.db #0x00	; 0
      000307 00                     874 	.db #0x00	; 0
      000308 00                     875 	.db #0x00	; 0
      000309 00                     876 	.db #0x00	; 0
      00030A 00                     877 	.db #0x00	; 0
      00030B 00                     878 	.db #0x00	; 0
      00030C 00                     879 	.db #0x00	; 0
      00030D 00                     880 	.db #0x00	; 0
      00030E 00                     881 	.db #0x00	; 0
      00030F 00                     882 	.db #0x00	; 0
      000310 00                     883 	.db #0x00	; 0
      000311 03                     884 	.db #0x03	; 3
      000312 03                     885 	.db #0x03	; 3
      000313 03                     886 	.db #0x03	; 3
      000314 03                     887 	.db #0x03	; 3
      000315 03                     888 	.db #0x03	; 3
      000316 03                     889 	.db #0x03	; 3
      000317 03                     890 	.db #0x03	; 3
      000318 03                     891 	.db #0x03	; 3
      000319 03                     892 	.db #0x03	; 3
      00031A 03                     893 	.db #0x03	; 3
      00031B 03                     894 	.db #0x03	; 3
      00031C 03                     895 	.db #0x03	; 3
      00031D 00                     896 	.db #0x00	; 0
      00031E 00                     897 	.db #0x00	; 0
      00031F 00                     898 	.db #0x00	; 0
      000320 00                     899 	.db #0x00	; 0
      000321 FD                     900 	.db #0xfd	; 253
      000322 F9                     901 	.db #0xf9	; 249
      000323 FD                     902 	.db #0xfd	; 253
      000324 F9                     903 	.db #0xf9	; 249
      000325 FD                     904 	.db #0xfd	; 253
      000326 F9                     905 	.db #0xf9	; 249
      000327 FD                     906 	.db #0xfd	; 253
      000328 F9                     907 	.db #0xf9	; 249
      000329 F9                     908 	.db #0xf9	; 249
      00032A F9                     909 	.db #0xf9	; 249
      00032B F9                     910 	.db #0xf9	; 249
      00032C F9                     911 	.db #0xf9	; 249
      00032D 00                     912 	.db #0x00	; 0
      00032E 00                     913 	.db #0x00	; 0
      00032F 00                     914 	.db #0x00	; 0
      000330 00                     915 	.db #0x00	; 0
      000331 F8                     916 	.db #0xf8	; 248
      000332 F0                     917 	.db #0xf0	; 240
      000333 F8                     918 	.db #0xf8	; 248
      000334 F8                     919 	.db #0xf8	; 248
      000335 FC                     920 	.db #0xfc	; 252
      000336 F8                     921 	.db #0xf8	; 248
      000337 FF                     922 	.db #0xff	; 255
      000338 FE                     923 	.db #0xfe	; 254
      000339 FF                     924 	.db #0xff	; 255
      00033A FF                     925 	.db #0xff	; 255
      00033B FF                     926 	.db #0xff	; 255
      00033C FF                     927 	.db #0xff	; 255
      00033D 00                     928 	.db #0x00	; 0
      00033E 00                     929 	.db #0x00	; 0
      00033F 00                     930 	.db #0x00	; 0
      000340 00                     931 	.db #0x00	; 0
      000341 FF                     932 	.db #0xff	; 255
      000342 F3                     933 	.db #0xf3	; 243
      000343 FB                     934 	.db #0xfb	; 251
      000344 F3                     935 	.db #0xf3	; 243
      000345 F3                     936 	.db #0xf3	; 243
      000346 F3                     937 	.db #0xf3	; 243
      000347 F3                     938 	.db #0xf3	; 243
      000348 F3                     939 	.db #0xf3	; 243
      000349 F3                     940 	.db #0xf3	; 243
      00034A F1                     941 	.db #0xf1	; 241
      00034B F1                     942 	.db #0xf1	; 241
      00034C F1                     943 	.db #0xf1	; 241
      00034D 00                     944 	.db #0x00	; 0
      00034E 00                     945 	.db #0x00	; 0
      00034F 00                     946 	.db #0x00	; 0
      000350 00                     947 	.db #0x00	; 0
      000351 F8                     948 	.db #0xf8	; 248
      000352 F8                     949 	.db #0xf8	; 248
      000353 FC                     950 	.db #0xfc	; 252
      000354 F8                     951 	.db #0xf8	; 248
      000355 FC                     952 	.db #0xfc	; 252
      000356 F8                     953 	.db #0xf8	; 248
      000357 F8                     954 	.db #0xf8	; 248
      000358 FC                     955 	.db #0xfc	; 252
      000359 FC                     956 	.db #0xfc	; 252
      00035A FC                     957 	.db #0xfc	; 252
      00035B FE                     958 	.db #0xfe	; 254
      00035C FC                     959 	.db #0xfc	; 252
      00035D 00                     960 	.db #0x00	; 0
      00035E 00                     961 	.db #0x00	; 0
      00035F 00                     962 	.db #0x00	; 0
      000360 00                     963 	.db #0x00	; 0
      000361 78                     964 	.db #0x78	; 120	'x'
      000362 78                     965 	.db #0x78	; 120	'x'
      000363 78                     966 	.db #0x78	; 120	'x'
      000364 78                     967 	.db #0x78	; 120	'x'
      000365 70                     968 	.db #0x70	; 112	'p'
      000366 78                     969 	.db #0x78	; 120	'x'
      000367 F0                     970 	.db #0xf0	; 240
      000368 70                     971 	.db #0x70	; 112	'p'
      000369 F0                     972 	.db #0xf0	; 240
      00036A E0                     973 	.db #0xe0	; 224
      00036B E0                     974 	.db #0xe0	; 224
      00036C E0                     975 	.db #0xe0	; 224
      00036D 00                     976 	.db #0x00	; 0
      00036E 00                     977 	.db #0x00	; 0
      00036F 00                     978 	.db #0x00	; 0
      000370 00                     979 	.db #0x00	; 0
      000371 7F                     980 	.db #0x7f	; 127
      000372 7F                     981 	.db #0x7f	; 127
      000373 7F                     982 	.db #0x7f	; 127
      000374 7F                     983 	.db #0x7f	; 127
      000375 FF                     984 	.db #0xff	; 255
      000376 7F                     985 	.db #0x7f	; 127
      000377 7F                     986 	.db #0x7f	; 127
      000378 FF                     987 	.db #0xff	; 255
      000379 FF                     988 	.db #0xff	; 255
      00037A FF                     989 	.db #0xff	; 255
      00037B FF                     990 	.db #0xff	; 255
      00037C FF                     991 	.db #0xff	; 255
      00037D 00                     992 	.db #0x00	; 0
      00037E 00                     993 	.db #0x00	; 0
      00037F 00                     994 	.db #0x00	; 0
      000380 00                     995 	.db #0x00	; 0
      000381 0F                     996 	.db #0x0f	; 15
      000382 0F                     997 	.db #0x0f	; 15
      000383 0F                     998 	.db #0x0f	; 15
      000384 0F                     999 	.db #0x0f	; 15
      000385 8F                    1000 	.db #0x8f	; 143
      000386 0F                    1001 	.db #0x0f	; 15
      000387 07                    1002 	.db #0x07	; 7
      000388 8F                    1003 	.db #0x8f	; 143
      000389 8F                    1004 	.db #0x8f	; 143
      00038A 87                    1005 	.db #0x87	; 135
      00038B 8F                    1006 	.db #0x8f	; 143
      00038C 87                    1007 	.db #0x87	; 135
      00038D 00                    1008 	.db #0x00	; 0
      00038E 00                    1009 	.db #0x00	; 0
      00038F 00                    1010 	.db #0x00	; 0
      000390 00                    1011 	.db #0x00	; 0
      000391 FC                    1012 	.db #0xfc	; 252
      000392 FE                    1013 	.db #0xfe	; 254
      000393 FE                    1014 	.db #0xfe	; 254
      000394 FF                    1015 	.db #0xff	; 255
      000395 FF                    1016 	.db #0xff	; 255
      000396 FF                    1017 	.db #0xff	; 255
      000397 FF                    1018 	.db #0xff	; 255
      000398 FF                    1019 	.db #0xff	; 255
      000399 FF                    1020 	.db #0xff	; 255
      00039A FF                    1021 	.db #0xff	; 255
      00039B FF                    1022 	.db #0xff	; 255
      00039C FF                    1023 	.db #0xff	; 255
      00039D 00                    1024 	.db #0x00	; 0
      00039E 00                    1025 	.db #0x00	; 0
      00039F 00                    1026 	.db #0x00	; 0
      0003A0 00                    1027 	.db #0x00	; 0
      0003A1 03                    1028 	.db #0x03	; 3
      0003A2 03                    1029 	.db #0x03	; 3
      0003A3 03                    1030 	.db #0x03	; 3
      0003A4 03                    1031 	.db #0x03	; 3
      0003A5 83                    1032 	.db #0x83	; 131
      0003A6 03                    1033 	.db #0x03	; 3
      0003A7 C3                    1034 	.db #0xc3	; 195
      0003A8 E3                    1035 	.db #0xe3	; 227
      0003A9 E3                    1036 	.db #0xe3	; 227
      0003AA E3                    1037 	.db #0xe3	; 227
      0003AB E3                    1038 	.db #0xe3	; 227
      0003AC E3                    1039 	.db #0xe3	; 227
      0003AD 00                    1040 	.db #0x00	; 0
      0003AE 00                    1041 	.db #0x00	; 0
      0003AF 00                    1042 	.db #0x00	; 0
      0003B0 00                    1043 	.db #0x00	; 0
      0003B1 FF                    1044 	.db #0xff	; 255
      0003B2 FF                    1045 	.db #0xff	; 255
      0003B3 FF                    1046 	.db #0xff	; 255
      0003B4 FF                    1047 	.db #0xff	; 255
      0003B5 FF                    1048 	.db #0xff	; 255
      0003B6 FF                    1049 	.db #0xff	; 255
      0003B7 FF                    1050 	.db #0xff	; 255
      0003B8 FF                    1051 	.db #0xff	; 255
      0003B9 FF                    1052 	.db #0xff	; 255
      0003BA FF                    1053 	.db #0xff	; 255
      0003BB FF                    1054 	.db #0xff	; 255
      0003BC FF                    1055 	.db #0xff	; 255
      0003BD 00                    1056 	.db #0x00	; 0
      0003BE 00                    1057 	.db #0x00	; 0
      0003BF 00                    1058 	.db #0x00	; 0
      0003C0 00                    1059 	.db #0x00	; 0
      0003C1 DF                    1060 	.db #0xdf	; 223
      0003C2 DF                    1061 	.db #0xdf	; 223
      0003C3 DF                    1062 	.db #0xdf	; 223
      0003C4 DF                    1063 	.db #0xdf	; 223
      0003C5 DF                    1064 	.db #0xdf	; 223
      0003C6 DF                    1065 	.db #0xdf	; 223
      0003C7 8F                    1066 	.db #0x8f	; 143
      0003C8 DF                    1067 	.db #0xdf	; 223
      0003C9 8F                    1068 	.db #0x8f	; 143
      0003CA DF                    1069 	.db #0xdf	; 223
      0003CB DF                    1070 	.db #0xdf	; 223
      0003CC 8F                    1071 	.db #0x8f	; 143
      0003CD 00                    1072 	.db #0x00	; 0
      0003CE 00                    1073 	.db #0x00	; 0
      0003CF 00                    1074 	.db #0x00	; 0
      0003D0 00                    1075 	.db #0x00	; 0
      0003D1 FE                    1076 	.db #0xfe	; 254
      0003D2 FC                    1077 	.db #0xfc	; 252
      0003D3 FE                    1078 	.db #0xfe	; 254
      0003D4 FF                    1079 	.db #0xff	; 255
      0003D5 FF                    1080 	.db #0xff	; 255
      0003D6 FF                    1081 	.db #0xff	; 255
      0003D7 FF                    1082 	.db #0xff	; 255
      0003D8 FF                    1083 	.db #0xff	; 255
      0003D9 FF                    1084 	.db #0xff	; 255
      0003DA FF                    1085 	.db #0xff	; 255
      0003DB FF                    1086 	.db #0xff	; 255
      0003DC FF                    1087 	.db #0xff	; 255
      0003DD 00                    1088 	.db #0x00	; 0
      0003DE 00                    1089 	.db #0x00	; 0
      0003DF 00                    1090 	.db #0x00	; 0
      0003E0 00                    1091 	.db #0x00	; 0
      0003E1 00                    1092 	.db #0x00	; 0
      0003E2 00                    1093 	.db #0x00	; 0
      0003E3 00                    1094 	.db #0x00	; 0
      0003E4 00                    1095 	.db #0x00	; 0
      0003E5 80                    1096 	.db #0x80	; 128
      0003E6 80                    1097 	.db #0x80	; 128
      0003E7 80                    1098 	.db #0x80	; 128
      0003E8 80                    1099 	.db #0x80	; 128
      0003E9 C0                    1100 	.db #0xc0	; 192
      0003EA C0                    1101 	.db #0xc0	; 192
      0003EB C0                    1102 	.db #0xc0	; 192
      0003EC C0                    1103 	.db #0xc0	; 192
      0003ED 03                    1104 	.db #0x03	; 3
      0003EE 03                    1105 	.db #0x03	; 3
      0003EF 03                    1106 	.db #0x03	; 3
      0003F0 03                    1107 	.db #0x03	; 3
      0003F1 03                    1108 	.db #0x03	; 3
      0003F2 03                    1109 	.db #0x03	; 3
      0003F3 03                    1110 	.db #0x03	; 3
      0003F4 03                    1111 	.db #0x03	; 3
      0003F5 03                    1112 	.db #0x03	; 3
      0003F6 03                    1113 	.db #0x03	; 3
      0003F7 03                    1114 	.db #0x03	; 3
      0003F8 03                    1115 	.db #0x03	; 3
      0003F9 03                    1116 	.db #0x03	; 3
      0003FA 03                    1117 	.db #0x03	; 3
      0003FB 03                    1118 	.db #0x03	; 3
      0003FC 03                    1119 	.db #0x03	; 3
      0003FD F9                    1120 	.db #0xf9	; 249
      0003FE F9                    1121 	.db #0xf9	; 249
      0003FF F9                    1122 	.db #0xf9	; 249
      000400 F9                    1123 	.db #0xf9	; 249
      000401 F9                    1124 	.db #0xf9	; 249
      000402 F9                    1125 	.db #0xf9	; 249
      000403 F1                    1126 	.db #0xf1	; 241
      000404 F9                    1127 	.db #0xf9	; 249
      000405 F1                    1128 	.db #0xf1	; 241
      000406 F9                    1129 	.db #0xf9	; 249
      000407 F1                    1130 	.db #0xf1	; 241
      000408 F9                    1131 	.db #0xf9	; 249
      000409 F9                    1132 	.db #0xf9	; 249
      00040A F1                    1133 	.db #0xf1	; 241
      00040B F9                    1134 	.db #0xf9	; 249
      00040C F1                    1135 	.db #0xf1	; 241
      00040D FF                    1136 	.db #0xff	; 255
      00040E FF                    1137 	.db #0xff	; 255
      00040F FF                    1138 	.db #0xff	; 255
      000410 FF                    1139 	.db #0xff	; 255
      000411 FF                    1140 	.db #0xff	; 255
      000412 FF                    1141 	.db #0xff	; 255
      000413 FF                    1142 	.db #0xff	; 255
      000414 FF                    1143 	.db #0xff	; 255
      000415 FF                    1144 	.db #0xff	; 255
      000416 FF                    1145 	.db #0xff	; 255
      000417 FF                    1146 	.db #0xff	; 255
      000418 FF                    1147 	.db #0xff	; 255
      000419 EF                    1148 	.db #0xef	; 239
      00041A E7                    1149 	.db #0xe7	; 231
      00041B E3                    1150 	.db #0xe3	; 227
      00041C E7                    1151 	.db #0xe7	; 231
      00041D F1                    1152 	.db #0xf1	; 241
      00041E F0                    1153 	.db #0xf0	; 240
      00041F F0                    1154 	.db #0xf0	; 240
      000420 F0                    1155 	.db #0xf0	; 240
      000421 F0                    1156 	.db #0xf0	; 240
      000422 F0                    1157 	.db #0xf0	; 240
      000423 F0                    1158 	.db #0xf0	; 240
      000424 F0                    1159 	.db #0xf0	; 240
      000425 F0                    1160 	.db #0xf0	; 240
      000426 F0                    1161 	.db #0xf0	; 240
      000427 F0                    1162 	.db #0xf0	; 240
      000428 F0                    1163 	.db #0xf0	; 240
      000429 F0                    1164 	.db #0xf0	; 240
      00042A F0                    1165 	.db #0xf0	; 240
      00042B F0                    1166 	.db #0xf0	; 240
      00042C F0                    1167 	.db #0xf0	; 240
      00042D FF                    1168 	.db #0xff	; 255
      00042E FE                    1169 	.db #0xfe	; 254
      00042F FF                    1170 	.db #0xff	; 255
      000430 FF                    1171 	.db #0xff	; 255
      000431 FF                    1172 	.db #0xff	; 255
      000432 FF                    1173 	.db #0xff	; 255
      000433 FF                    1174 	.db #0xff	; 255
      000434 FF                    1175 	.db #0xff	; 255
      000435 FF                    1176 	.db #0xff	; 255
      000436 7F                    1177 	.db #0x7f	; 127
      000437 FF                    1178 	.db #0xff	; 255
      000438 7F                    1179 	.db #0x7f	; 127
      000439 7F                    1180 	.db #0x7f	; 127
      00043A 7F                    1181 	.db #0x7f	; 127
      00043B 7F                    1182 	.db #0x7f	; 127
      00043C 7F                    1183 	.db #0x7f	; 127
      00043D E0                    1184 	.db #0xe0	; 224
      00043E C0                    1185 	.db #0xc0	; 192
      00043F C0                    1186 	.db #0xc0	; 192
      000440 C0                    1187 	.db #0xc0	; 192
      000441 C0                    1188 	.db #0xc0	; 192
      000442 C0                    1189 	.db #0xc0	; 192
      000443 81                    1190 	.db #0x81	; 129
      000444 C0                    1191 	.db #0xc0	; 192
      000445 C1                    1192 	.db #0xc1	; 193
      000446 81                    1193 	.db #0x81	; 129
      000447 81                    1194 	.db #0x81	; 129
      000448 81                    1195 	.db #0x81	; 129
      000449 81                    1196 	.db #0x81	; 129
      00044A 83                    1197 	.db #0x83	; 131
      00044B 83                    1198 	.db #0x83	; 131
      00044C 83                    1199 	.db #0x83	; 131
      00044D FF                    1200 	.db #0xff	; 255
      00044E FF                    1201 	.db #0xff	; 255
      00044F FF                    1202 	.db #0xff	; 255
      000450 FF                    1203 	.db #0xff	; 255
      000451 FF                    1204 	.db #0xff	; 255
      000452 FF                    1205 	.db #0xff	; 255
      000453 FF                    1206 	.db #0xff	; 255
      000454 FF                    1207 	.db #0xff	; 255
      000455 FF                    1208 	.db #0xff	; 255
      000456 DF                    1209 	.db #0xdf	; 223
      000457 FF                    1210 	.db #0xff	; 255
      000458 DF                    1211 	.db #0xdf	; 223
      000459 CF                    1212 	.db #0xcf	; 207
      00045A 8F                    1213 	.db #0x8f	; 143
      00045B C7                    1214 	.db #0xc7	; 199
      00045C 8F                    1215 	.db #0x8f	; 143
      00045D 8F                    1216 	.db #0x8f	; 143
      00045E 87                    1217 	.db #0x87	; 135
      00045F 8F                    1218 	.db #0x8f	; 143
      000460 87                    1219 	.db #0x87	; 135
      000461 8F                    1220 	.db #0x8f	; 143
      000462 87                    1221 	.db #0x87	; 135
      000463 C7                    1222 	.db #0xc7	; 199
      000464 C7                    1223 	.db #0xc7	; 199
      000465 C7                    1224 	.db #0xc7	; 199
      000466 C7                    1225 	.db #0xc7	; 199
      000467 C7                    1226 	.db #0xc7	; 199
      000468 C7                    1227 	.db #0xc7	; 199
      000469 C7                    1228 	.db #0xc7	; 199
      00046A C7                    1229 	.db #0xc7	; 199
      00046B E7                    1230 	.db #0xe7	; 231
      00046C C7                    1231 	.db #0xc7	; 199
      00046D FF                    1232 	.db #0xff	; 255
      00046E FF                    1233 	.db #0xff	; 255
      00046F FF                    1234 	.db #0xff	; 255
      000470 FF                    1235 	.db #0xff	; 255
      000471 FF                    1236 	.db #0xff	; 255
      000472 FF                    1237 	.db #0xff	; 255
      000473 E0                    1238 	.db #0xe0	; 224
      000474 F1                    1239 	.db #0xf1	; 241
      000475 E1                    1240 	.db #0xe1	; 225
      000476 F0                    1241 	.db #0xf0	; 240
      000477 E1                    1242 	.db #0xe1	; 225
      000478 F0                    1243 	.db #0xf0	; 240
      000479 F1                    1244 	.db #0xf1	; 241
      00047A E0                    1245 	.db #0xe0	; 224
      00047B F1                    1246 	.db #0xf1	; 241
      00047C E1                    1247 	.db #0xe1	; 225
      00047D F3                    1248 	.db #0xf3	; 243
      00047E E3                    1249 	.db #0xe3	; 227
      00047F F3                    1250 	.db #0xf3	; 243
      000480 E3                    1251 	.db #0xe3	; 227
      000481 E3                    1252 	.db #0xe3	; 227
      000482 F3                    1253 	.db #0xf3	; 243
      000483 F3                    1254 	.db #0xf3	; 243
      000484 F3                    1255 	.db #0xf3	; 243
      000485 F3                    1256 	.db #0xf3	; 243
      000486 F3                    1257 	.db #0xf3	; 243
      000487 F3                    1258 	.db #0xf3	; 243
      000488 F3                    1259 	.db #0xf3	; 243
      000489 F3                    1260 	.db #0xf3	; 243
      00048A E3                    1261 	.db #0xe3	; 227
      00048B E3                    1262 	.db #0xe3	; 227
      00048C E3                    1263 	.db #0xe3	; 227
      00048D FF                    1264 	.db #0xff	; 255
      00048E FF                    1265 	.db #0xff	; 255
      00048F FF                    1266 	.db #0xff	; 255
      000490 FF                    1267 	.db #0xff	; 255
      000491 F8                    1268 	.db #0xf8	; 248
      000492 F8                    1269 	.db #0xf8	; 248
      000493 F0                    1270 	.db #0xf0	; 240
      000494 F8                    1271 	.db #0xf8	; 248
      000495 FF                    1272 	.db #0xff	; 255
      000496 FF                    1273 	.db #0xff	; 255
      000497 FF                    1274 	.db #0xff	; 255
      000498 FF                    1275 	.db #0xff	; 255
      000499 FF                    1276 	.db #0xff	; 255
      00049A FF                    1277 	.db #0xff	; 255
      00049B F8                    1278 	.db #0xf8	; 248
      00049C F0                    1279 	.db #0xf0	; 240
      00049D DF                    1280 	.db #0xdf	; 223
      00049E 8F                    1281 	.db #0x8f	; 143
      00049F DF                    1282 	.db #0xdf	; 223
      0004A0 8F                    1283 	.db #0x8f	; 143
      0004A1 DF                    1284 	.db #0xdf	; 223
      0004A2 0F                    1285 	.db #0x0f	; 15
      0004A3 1F                    1286 	.db #0x1f	; 31
      0004A4 0F                    1287 	.db #0x0f	; 15
      0004A5 9F                    1288 	.db #0x9f	; 159
      0004A6 8F                    1289 	.db #0x8f	; 143
      0004A7 9F                    1290 	.db #0x9f	; 159
      0004A8 8F                    1291 	.db #0x8f	; 143
      0004A9 8F                    1292 	.db #0x8f	; 143
      0004AA 0F                    1293 	.db #0x0f	; 15
      0004AB 0F                    1294 	.db #0x0f	; 15
      0004AC 0F                    1295 	.db #0x0f	; 15
      0004AD FF                    1296 	.db #0xff	; 255
      0004AE FF                    1297 	.db #0xff	; 255
      0004AF EF                    1298 	.db #0xef	; 239
      0004B0 E7                    1299 	.db #0xe7	; 231
      0004B1 E7                    1300 	.db #0xe7	; 231
      0004B2 E7                    1301 	.db #0xe7	; 231
      0004B3 C3                    1302 	.db #0xc3	; 195
      0004B4 E7                    1303 	.db #0xe7	; 231
      0004B5 C7                    1304 	.db #0xc7	; 199
      0004B6 E7                    1305 	.db #0xe7	; 231
      0004B7 CF                    1306 	.db #0xcf	; 207
      0004B8 E7                    1307 	.db #0xe7	; 231
      0004B9 FE                    1308 	.db #0xfe	; 254
      0004BA FC                    1309 	.db #0xfc	; 252
      0004BB FC                    1310 	.db #0xfc	; 252
      0004BC FE                    1311 	.db #0xfe	; 254
      0004BD E0                    1312 	.db #0xe0	; 224
      0004BE C0                    1313 	.db #0xc0	; 192
      0004BF E0                    1314 	.db #0xe0	; 224
      0004C0 C0                    1315 	.db #0xc0	; 192
      0004C1 E0                    1316 	.db #0xe0	; 224
      0004C2 C0                    1317 	.db #0xc0	; 192
      0004C3 C0                    1318 	.db #0xc0	; 192
      0004C4 80                    1319 	.db #0x80	; 128
      0004C5 80                    1320 	.db #0x80	; 128
      0004C6 80                    1321 	.db #0x80	; 128
      0004C7 80                    1322 	.db #0x80	; 128
      0004C8 80                    1323 	.db #0x80	; 128
      0004C9 00                    1324 	.db #0x00	; 0
      0004CA 00                    1325 	.db #0x00	; 0
      0004CB 00                    1326 	.db #0x00	; 0
      0004CC 00                    1327 	.db #0x00	; 0
      0004CD 03                    1328 	.db #0x03	; 3
      0004CE 03                    1329 	.db #0x03	; 3
      0004CF 03                    1330 	.db #0x03	; 3
      0004D0 03                    1331 	.db #0x03	; 3
      0004D1 03                    1332 	.db #0x03	; 3
      0004D2 03                    1333 	.db #0x03	; 3
      0004D3 03                    1334 	.db #0x03	; 3
      0004D4 03                    1335 	.db #0x03	; 3
      0004D5 03                    1336 	.db #0x03	; 3
      0004D6 03                    1337 	.db #0x03	; 3
      0004D7 00                    1338 	.db #0x00	; 0
      0004D8 00                    1339 	.db #0x00	; 0
      0004D9 00                    1340 	.db #0x00	; 0
      0004DA 00                    1341 	.db #0x00	; 0
      0004DB 00                    1342 	.db #0x00	; 0
      0004DC 00                    1343 	.db #0x00	; 0
      0004DD F9                    1344 	.db #0xf9	; 249
      0004DE F1                    1345 	.db #0xf1	; 241
      0004DF F9                    1346 	.db #0xf9	; 249
      0004E0 F1                    1347 	.db #0xf1	; 241
      0004E1 F9                    1348 	.db #0xf9	; 249
      0004E2 F1                    1349 	.db #0xf1	; 241
      0004E3 F9                    1350 	.db #0xf9	; 249
      0004E4 F1                    1351 	.db #0xf1	; 241
      0004E5 F9                    1352 	.db #0xf9	; 249
      0004E6 F1                    1353 	.db #0xf1	; 241
      0004E7 00                    1354 	.db #0x00	; 0
      0004E8 00                    1355 	.db #0x00	; 0
      0004E9 00                    1356 	.db #0x00	; 0
      0004EA 00                    1357 	.db #0x00	; 0
      0004EB 00                    1358 	.db #0x00	; 0
      0004EC 00                    1359 	.db #0x00	; 0
      0004ED E3                    1360 	.db #0xe3	; 227
      0004EE E1                    1361 	.db #0xe1	; 225
      0004EF E0                    1362 	.db #0xe0	; 224
      0004F0 E0                    1363 	.db #0xe0	; 224
      0004F1 E0                    1364 	.db #0xe0	; 224
      0004F2 E0                    1365 	.db #0xe0	; 224
      0004F3 E0                    1366 	.db #0xe0	; 224
      0004F4 E0                    1367 	.db #0xe0	; 224
      0004F5 E0                    1368 	.db #0xe0	; 224
      0004F6 E0                    1369 	.db #0xe0	; 224
      0004F7 00                    1370 	.db #0x00	; 0
      0004F8 00                    1371 	.db #0x00	; 0
      0004F9 00                    1372 	.db #0x00	; 0
      0004FA 00                    1373 	.db #0x00	; 0
      0004FB 00                    1374 	.db #0x00	; 0
      0004FC 00                    1375 	.db #0x00	; 0
      0004FD F0                    1376 	.db #0xf0	; 240
      0004FE F0                    1377 	.db #0xf0	; 240
      0004FF F0                    1378 	.db #0xf0	; 240
      000500 F0                    1379 	.db #0xf0	; 240
      000501 70                    1380 	.db #0x70	; 112	'p'
      000502 F0                    1381 	.db #0xf0	; 240
      000503 30                    1382 	.db #0x30	; 48	'0'
      000504 10                    1383 	.db #0x10	; 16
      000505 00                    1384 	.db #0x00	; 0
      000506 00                    1385 	.db #0x00	; 0
      000507 00                    1386 	.db #0x00	; 0
      000508 00                    1387 	.db #0x00	; 0
      000509 00                    1388 	.db #0x00	; 0
      00050A 00                    1389 	.db #0x00	; 0
      00050B 00                    1390 	.db #0x00	; 0
      00050C 00                    1391 	.db #0x00	; 0
      00050D 3F                    1392 	.db #0x3f	; 63
      00050E 7F                    1393 	.db #0x7f	; 127
      00050F 3F                    1394 	.db #0x3f	; 63
      000510 3F                    1395 	.db #0x3f	; 63
      000511 3E                    1396 	.db #0x3e	; 62
      000512 3F                    1397 	.db #0x3f	; 63
      000513 3E                    1398 	.db #0x3e	; 62
      000514 1E                    1399 	.db #0x1e	; 30
      000515 0E                    1400 	.db #0x0e	; 14
      000516 1E                    1401 	.db #0x1e	; 30
      000517 00                    1402 	.db #0x00	; 0
      000518 00                    1403 	.db #0x00	; 0
      000519 00                    1404 	.db #0x00	; 0
      00051A 00                    1405 	.db #0x00	; 0
      00051B 00                    1406 	.db #0x00	; 0
      00051C 00                    1407 	.db #0x00	; 0
      00051D 87                    1408 	.db #0x87	; 135
      00051E 03                    1409 	.db #0x03	; 3
      00051F 03                    1410 	.db #0x03	; 3
      000520 07                    1411 	.db #0x07	; 7
      000521 07                    1412 	.db #0x07	; 7
      000522 07                    1413 	.db #0x07	; 7
      000523 07                    1414 	.db #0x07	; 7
      000524 07                    1415 	.db #0x07	; 7
      000525 07                    1416 	.db #0x07	; 7
      000526 07                    1417 	.db #0x07	; 7
      000527 00                    1418 	.db #0x00	; 0
      000528 00                    1419 	.db #0x00	; 0
      000529 00                    1420 	.db #0x00	; 0
      00052A 00                    1421 	.db #0x00	; 0
      00052B 00                    1422 	.db #0x00	; 0
      00052C 00                    1423 	.db #0x00	; 0
      00052D 8F                    1424 	.db #0x8f	; 143
      00052E 87                    1425 	.db #0x87	; 135
      00052F 97                    1426 	.db #0x97	; 151
      000530 8F                    1427 	.db #0x8f	; 143
      000531 BF                    1428 	.db #0xbf	; 191
      000532 FF                    1429 	.db #0xff	; 255
      000533 FF                    1430 	.db #0xff	; 255
      000534 73                    1431 	.db #0x73	; 115	's'
      000535 03                    1432 	.db #0x03	; 3
      000536 23                    1433 	.db #0x23	; 35
      000537 00                    1434 	.db #0x00	; 0
      000538 00                    1435 	.db #0x00	; 0
      000539 00                    1436 	.db #0x00	; 0
      00053A 00                    1437 	.db #0x00	; 0
      00053B 00                    1438 	.db #0x00	; 0
      00053C 00                    1439 	.db #0x00	; 0
      00053D E7                    1440 	.db #0xe7	; 231
      00053E C7                    1441 	.db #0xc7	; 199
      00053F E7                    1442 	.db #0xe7	; 231
      000540 E7                    1443 	.db #0xe7	; 231
      000541 E7                    1444 	.db #0xe7	; 231
      000542 E7                    1445 	.db #0xe7	; 231
      000543 E3                    1446 	.db #0xe3	; 227
      000544 F7                    1447 	.db #0xf7	; 247
      000545 F3                    1448 	.db #0xf3	; 243
      000546 F7                    1449 	.db #0xf7	; 247
      000547 00                    1450 	.db #0x00	; 0
      000548 01                    1451 	.db #0x01	; 1
      000549 00                    1452 	.db #0x00	; 0
      00054A 00                    1453 	.db #0x00	; 0
      00054B 00                    1454 	.db #0x00	; 0
      00054C 00                    1455 	.db #0x00	; 0
      00054D F1                    1456 	.db #0xf1	; 241
      00054E E1                    1457 	.db #0xe1	; 225
      00054F F7                    1458 	.db #0xf7	; 247
      000550 E3                    1459 	.db #0xe3	; 227
      000551 FF                    1460 	.db #0xff	; 255
      000552 FF                    1461 	.db #0xff	; 255
      000553 FF                    1462 	.db #0xff	; 255
      000554 FF                    1463 	.db #0xff	; 255
      000555 FE                    1464 	.db #0xfe	; 254
      000556 FE                    1465 	.db #0xfe	; 254
      000557 08                    1466 	.db #0x08	; 8
      000558 F0                    1467 	.db #0xf0	; 240
      000559 00                    1468 	.db #0x00	; 0
      00055A 00                    1469 	.db #0x00	; 0
      00055B 00                    1470 	.db #0x00	; 0
      00055C 00                    1471 	.db #0x00	; 0
      00055D E3                    1472 	.db #0xe3	; 227
      00055E E3                    1473 	.db #0xe3	; 227
      00055F E3                    1474 	.db #0xe3	; 227
      000560 E3                    1475 	.db #0xe3	; 227
      000561 C3                    1476 	.db #0xc3	; 195
      000562 E3                    1477 	.db #0xe3	; 227
      000563 03                    1478 	.db #0x03	; 3
      000564 83                    1479 	.db #0x83	; 131
      000565 03                    1480 	.db #0x03	; 3
      000566 03                    1481 	.db #0x03	; 3
      000567 00                    1482 	.db #0x00	; 0
      000568 00                    1483 	.db #0x00	; 0
      000569 00                    1484 	.db #0x00	; 0
      00056A 00                    1485 	.db #0x00	; 0
      00056B 00                    1486 	.db #0x00	; 0
      00056C 00                    1487 	.db #0x00	; 0
      00056D F8                    1488 	.db #0xf8	; 248
      00056E F0                    1489 	.db #0xf0	; 240
      00056F F8                    1490 	.db #0xf8	; 248
      000570 F0                    1491 	.db #0xf0	; 240
      000571 FF                    1492 	.db #0xff	; 255
      000572 FF                    1493 	.db #0xff	; 255
      000573 FF                    1494 	.db #0xff	; 255
      000574 FF                    1495 	.db #0xff	; 255
      000575 FF                    1496 	.db #0xff	; 255
      000576 FF                    1497 	.db #0xff	; 255
      000577 00                    1498 	.db #0x00	; 0
      000578 00                    1499 	.db #0x00	; 0
      000579 00                    1500 	.db #0x00	; 0
      00057A 00                    1501 	.db #0x00	; 0
      00057B 00                    1502 	.db #0x00	; 0
      00057C 00                    1503 	.db #0x00	; 0
      00057D 0F                    1504 	.db #0x0f	; 15
      00057E 0F                    1505 	.db #0x0f	; 15
      00057F CF                    1506 	.db #0xcf	; 207
      000580 0F                    1507 	.db #0x0f	; 15
      000581 CF                    1508 	.db #0xcf	; 207
      000582 8F                    1509 	.db #0x8f	; 143
      000583 8F                    1510 	.db #0x8f	; 143
      000584 8F                    1511 	.db #0x8f	; 143
      000585 87                    1512 	.db #0x87	; 135
      000586 0F                    1513 	.db #0x0f	; 15
      000587 00                    1514 	.db #0x00	; 0
      000588 00                    1515 	.db #0x00	; 0
      000589 00                    1516 	.db #0x00	; 0
      00058A 00                    1517 	.db #0x00	; 0
      00058B 00                    1518 	.db #0x00	; 0
      00058C 00                    1519 	.db #0x00	; 0
      00058D FF                    1520 	.db #0xff	; 255
      00058E FE                    1521 	.db #0xfe	; 254
      00058F FF                    1522 	.db #0xff	; 255
      000590 DF                    1523 	.db #0xdf	; 223
      000591 EF                    1524 	.db #0xef	; 239
      000592 DF                    1525 	.db #0xdf	; 223
      000593 E7                    1526 	.db #0xe7	; 231
      000594 CF                    1527 	.db #0xcf	; 207
      000595 E7                    1528 	.db #0xe7	; 231
      000596 C7                    1529 	.db #0xc7	; 199
      000597 07                    1530 	.db #0x07	; 7
      000598 06                    1531 	.db #0x06	; 6
      000599 04                    1532 	.db #0x04	; 4
      00059A 00                    1533 	.db #0x00	; 0
      00059B 00                    1534 	.db #0x00	; 0
      00059C 00                    1535 	.db #0x00	; 0
      00059D 00                    1536 	.db #0x00	; 0
      00059E 00                    1537 	.db #0x00	; 0
      00059F 00                    1538 	.db #0x00	; 0
      0005A0 80                    1539 	.db #0x80	; 128
      0005A1 80                    1540 	.db #0x80	; 128
      0005A2 80                    1541 	.db #0x80	; 128
      0005A3 C0                    1542 	.db #0xc0	; 192
      0005A4 80                    1543 	.db #0x80	; 128
      0005A5 80                    1544 	.db #0x80	; 128
      0005A6 80                    1545 	.db #0x80	; 128
      0005A7 00                    1546 	.db #0x00	; 0
      0005A8 00                    1547 	.db #0x00	; 0
      0005A9 00                    1548 	.db #0x00	; 0
      0005AA 00                    1549 	.db #0x00	; 0
      0005AB 00                    1550 	.db #0x00	; 0
      0005AC 00                    1551 	.db #0x00	; 0
      0005AD                       1552 _title_map:
      0005AD 00                    1553 	.db #0x00	; 0
      0005AE 00                    1554 	.db #0x00	; 0
      0005AF 00                    1555 	.db #0x00	; 0
      0005B0 00                    1556 	.db #0x00	; 0
      0005B1 00                    1557 	.db #0x00	; 0
      0005B2 00                    1558 	.db #0x00	; 0
      0005B3 00                    1559 	.db #0x00	; 0
      0005B4 00                    1560 	.db #0x00	; 0
      0005B5 00                    1561 	.db #0x00	; 0
      0005B6 00                    1562 	.db #0x00	; 0
      0005B7 00                    1563 	.db #0x00	; 0
      0005B8 00                    1564 	.db #0x00	; 0
      0005B9 00                    1565 	.db #0x00	; 0
      0005BA 00                    1566 	.db #0x00	; 0
      0005BB 00                    1567 	.db #0x00	; 0
      0005BC 00                    1568 	.db #0x00	; 0
      0005BD 00                    1569 	.db #0x00	; 0
      0005BE 00                    1570 	.db #0x00	; 0
      0005BF 00                    1571 	.db #0x00	; 0
      0005C0 00                    1572 	.db #0x00	; 0
      0005C1 00                    1573 	.db #0x00	; 0
      0005C2 00                    1574 	.db #0x00	; 0
      0005C3 00                    1575 	.db #0x00	; 0
      0005C4 00                    1576 	.db #0x00	; 0
      0005C5 00                    1577 	.db #0x00	; 0
      0005C6 00                    1578 	.db #0x00	; 0
      0005C7 00                    1579 	.db #0x00	; 0
      0005C8 00                    1580 	.db #0x00	; 0
      0005C9 00                    1581 	.db #0x00	; 0
      0005CA 00                    1582 	.db #0x00	; 0
      0005CB 00                    1583 	.db #0x00	; 0
      0005CC 00                    1584 	.db #0x00	; 0
      0005CD 00                    1585 	.db #0x00	; 0
      0005CE 00                    1586 	.db #0x00	; 0
      0005CF 00                    1587 	.db #0x00	; 0
      0005D0 00                    1588 	.db #0x00	; 0
      0005D1 00                    1589 	.db #0x00	; 0
      0005D2 00                    1590 	.db #0x00	; 0
      0005D3 00                    1591 	.db #0x00	; 0
      0005D4 00                    1592 	.db #0x00	; 0
      0005D5 00                    1593 	.db #0x00	; 0
      0005D6 00                    1594 	.db #0x00	; 0
      0005D7 00                    1595 	.db #0x00	; 0
      0005D8 00                    1596 	.db #0x00	; 0
      0005D9 00                    1597 	.db #0x00	; 0
      0005DA 00                    1598 	.db #0x00	; 0
      0005DB 00                    1599 	.db #0x00	; 0
      0005DC 00                    1600 	.db #0x00	; 0
      0005DD 00                    1601 	.db #0x00	; 0
      0005DE 00                    1602 	.db #0x00	; 0
      0005DF 00                    1603 	.db #0x00	; 0
      0005E0 00                    1604 	.db #0x00	; 0
      0005E1 00                    1605 	.db #0x00	; 0
      0005E2 00                    1606 	.db #0x00	; 0
      0005E3 00                    1607 	.db #0x00	; 0
      0005E4 00                    1608 	.db #0x00	; 0
      0005E5 00                    1609 	.db #0x00	; 0
      0005E6 00                    1610 	.db #0x00	; 0
      0005E7 00                    1611 	.db #0x00	; 0
      0005E8 00                    1612 	.db #0x00	; 0
      0005E9 00                    1613 	.db #0x00	; 0
      0005EA 00                    1614 	.db #0x00	; 0
      0005EB 00                    1615 	.db #0x00	; 0
      0005EC 00                    1616 	.db #0x00	; 0
      0005ED 00                    1617 	.db #0x00	; 0
      0005EE 00                    1618 	.db #0x00	; 0
      0005EF 00                    1619 	.db #0x00	; 0
      0005F0 00                    1620 	.db #0x00	; 0
      0005F1 00                    1621 	.db #0x00	; 0
      0005F2 00                    1622 	.db #0x00	; 0
      0005F3 00                    1623 	.db #0x00	; 0
      0005F4 00                    1624 	.db #0x00	; 0
      0005F5 00                    1625 	.db #0x00	; 0
      0005F6 00                    1626 	.db #0x00	; 0
      0005F7 00                    1627 	.db #0x00	; 0
      0005F8 00                    1628 	.db #0x00	; 0
      0005F9 00                    1629 	.db #0x00	; 0
      0005FA 00                    1630 	.db #0x00	; 0
      0005FB 00                    1631 	.db #0x00	; 0
      0005FC 00                    1632 	.db #0x00	; 0
      0005FD 00                    1633 	.db #0x00	; 0
      0005FE 00                    1634 	.db #0x00	; 0
      0005FF 00                    1635 	.db #0x00	; 0
      000600 00                    1636 	.db #0x00	; 0
      000601 00                    1637 	.db #0x00	; 0
      000602 01                    1638 	.db #0x01	; 1
      000603 00                    1639 	.db #0x00	; 0
      000604 00                    1640 	.db #0x00	; 0
      000605 02                    1641 	.db #0x02	; 2
      000606 00                    1642 	.db #0x00	; 0
      000607 00                    1643 	.db #0x00	; 0
      000608 00                    1644 	.db #0x00	; 0
      000609 00                    1645 	.db #0x00	; 0
      00060A 00                    1646 	.db #0x00	; 0
      00060B 00                    1647 	.db #0x00	; 0
      00060C 00                    1648 	.db #0x00	; 0
      00060D 00                    1649 	.db #0x00	; 0
      00060E 00                    1650 	.db #0x00	; 0
      00060F 00                    1651 	.db #0x00	; 0
      000610 00                    1652 	.db #0x00	; 0
      000611 00                    1653 	.db #0x00	; 0
      000612 00                    1654 	.db #0x00	; 0
      000613 00                    1655 	.db #0x00	; 0
      000614 00                    1656 	.db #0x00	; 0
      000615 00                    1657 	.db #0x00	; 0
      000616 03                    1658 	.db #0x03	; 3
      000617 04                    1659 	.db #0x04	; 4
      000618 05                    1660 	.db #0x05	; 5
      000619 06                    1661 	.db #0x06	; 6
      00061A 00                    1662 	.db #0x00	; 0
      00061B 00                    1663 	.db #0x00	; 0
      00061C 00                    1664 	.db #0x00	; 0
      00061D 00                    1665 	.db #0x00	; 0
      00061E 00                    1666 	.db #0x00	; 0
      00061F 00                    1667 	.db #0x00	; 0
      000620 00                    1668 	.db #0x00	; 0
      000621 00                    1669 	.db #0x00	; 0
      000622 00                    1670 	.db #0x00	; 0
      000623 00                    1671 	.db #0x00	; 0
      000624 00                    1672 	.db #0x00	; 0
      000625 00                    1673 	.db #0x00	; 0
      000626 00                    1674 	.db #0x00	; 0
      000627 00                    1675 	.db #0x00	; 0
      000628 00                    1676 	.db #0x00	; 0
      000629 07                    1677 	.db #0x07	; 7
      00062A 08                    1678 	.db #0x08	; 8
      00062B 09                    1679 	.db #0x09	; 9
      00062C 0A                    1680 	.db #0x0a	; 10
      00062D 0B                    1681 	.db #0x0b	; 11
      00062E 0C                    1682 	.db #0x0c	; 12
      00062F 00                    1683 	.db #0x00	; 0
      000630 00                    1684 	.db #0x00	; 0
      000631 00                    1685 	.db #0x00	; 0
      000632 00                    1686 	.db #0x00	; 0
      000633 00                    1687 	.db #0x00	; 0
      000634 00                    1688 	.db #0x00	; 0
      000635 00                    1689 	.db #0x00	; 0
      000636 00                    1690 	.db #0x00	; 0
      000637 00                    1691 	.db #0x00	; 0
      000638 00                    1692 	.db #0x00	; 0
      000639 00                    1693 	.db #0x00	; 0
      00063A 00                    1694 	.db #0x00	; 0
      00063B 00                    1695 	.db #0x00	; 0
      00063C 00                    1696 	.db #0x00	; 0
      00063D 0D                    1697 	.db #0x0d	; 13
      00063E 0E                    1698 	.db #0x0e	; 14
      00063F 0F                    1699 	.db #0x0f	; 15
      000640 0F                    1700 	.db #0x0f	; 15
      000641 10                    1701 	.db #0x10	; 16
      000642 11                    1702 	.db #0x11	; 17
      000643 00                    1703 	.db #0x00	; 0
      000644 00                    1704 	.db #0x00	; 0
      000645 00                    1705 	.db #0x00	; 0
      000646 00                    1706 	.db #0x00	; 0
      000647 00                    1707 	.db #0x00	; 0
      000648 00                    1708 	.db #0x00	; 0
      000649 00                    1709 	.db #0x00	; 0
      00064A 00                    1710 	.db #0x00	; 0
      00064B 00                    1711 	.db #0x00	; 0
      00064C 00                    1712 	.db #0x00	; 0
      00064D 00                    1713 	.db #0x00	; 0
      00064E 00                    1714 	.db #0x00	; 0
      00064F 00                    1715 	.db #0x00	; 0
      000650 00                    1716 	.db #0x00	; 0
      000651 12                    1717 	.db #0x12	; 18
      000652 13                    1718 	.db #0x13	; 19
      000653 14                    1719 	.db #0x14	; 20
      000654 15                    1720 	.db #0x15	; 21
      000655 16                    1721 	.db #0x16	; 22
      000656 17                    1722 	.db #0x17	; 23
      000657 00                    1723 	.db #0x00	; 0
      000658 00                    1724 	.db #0x00	; 0
      000659 00                    1725 	.db #0x00	; 0
      00065A 00                    1726 	.db #0x00	; 0
      00065B 00                    1727 	.db #0x00	; 0
      00065C 00                    1728 	.db #0x00	; 0
      00065D 00                    1729 	.db #0x00	; 0
      00065E 00                    1730 	.db #0x00	; 0
      00065F 00                    1731 	.db #0x00	; 0
      000660 00                    1732 	.db #0x00	; 0
      000661 00                    1733 	.db #0x00	; 0
      000662 00                    1734 	.db #0x00	; 0
      000663 00                    1735 	.db #0x00	; 0
      000664 00                    1736 	.db #0x00	; 0
      000665 00                    1737 	.db #0x00	; 0
      000666 00                    1738 	.db #0x00	; 0
      000667 00                    1739 	.db #0x00	; 0
      000668 00                    1740 	.db #0x00	; 0
      000669 00                    1741 	.db #0x00	; 0
      00066A 00                    1742 	.db #0x00	; 0
      00066B 00                    1743 	.db #0x00	; 0
      00066C 00                    1744 	.db #0x00	; 0
      00066D 00                    1745 	.db #0x00	; 0
      00066E 00                    1746 	.db #0x00	; 0
      00066F 00                    1747 	.db #0x00	; 0
      000670 00                    1748 	.db #0x00	; 0
      000671 00                    1749 	.db #0x00	; 0
      000672 00                    1750 	.db #0x00	; 0
      000673 00                    1751 	.db #0x00	; 0
      000674 00                    1752 	.db #0x00	; 0
      000675 00                    1753 	.db #0x00	; 0
      000676 00                    1754 	.db #0x00	; 0
      000677 00                    1755 	.db #0x00	; 0
      000678 18                    1756 	.db #0x18	; 24
      000679 19                    1757 	.db #0x19	; 25
      00067A 1A                    1758 	.db #0x1a	; 26
      00067B 1B                    1759 	.db #0x1b	; 27
      00067C 1C                    1760 	.db #0x1c	; 28
      00067D 1D                    1761 	.db #0x1d	; 29
      00067E 1E                    1762 	.db #0x1e	; 30
      00067F 1F                    1763 	.db #0x1f	; 31
      000680 20                    1764 	.db #0x20	; 32
      000681 21                    1765 	.db #0x21	; 33
      000682 22                    1766 	.db #0x22	; 34
      000683 23                    1767 	.db #0x23	; 35
      000684 24                    1768 	.db #0x24	; 36
      000685 25                    1769 	.db #0x25	; 37
      000686 00                    1770 	.db #0x00	; 0
      000687 00                    1771 	.db #0x00	; 0
      000688 00                    1772 	.db #0x00	; 0
      000689 00                    1773 	.db #0x00	; 0
      00068A 00                    1774 	.db #0x00	; 0
      00068B 00                    1775 	.db #0x00	; 0
      00068C 26                    1776 	.db #0x26	; 38
      00068D 27                    1777 	.db #0x27	; 39
      00068E 28                    1778 	.db #0x28	; 40
      00068F 29                    1779 	.db #0x29	; 41
      000690 2A                    1780 	.db #0x2a	; 42
      000691 2B                    1781 	.db #0x2b	; 43
      000692 2C                    1782 	.db #0x2c	; 44
      000693 2D                    1783 	.db #0x2d	; 45
      000694 2E                    1784 	.db #0x2e	; 46
      000695 2F                    1785 	.db #0x2f	; 47
      000696 30                    1786 	.db #0x30	; 48	'0'
      000697 31                    1787 	.db #0x31	; 49	'1'
      000698 32                    1788 	.db #0x32	; 50	'2'
      000699 33                    1789 	.db #0x33	; 51	'3'
      00069A 00                    1790 	.db #0x00	; 0
      00069B 00                    1791 	.db #0x00	; 0
      00069C 00                    1792 	.db #0x00	; 0
      00069D 00                    1793 	.db #0x00	; 0
      00069E 00                    1794 	.db #0x00	; 0
      00069F 00                    1795 	.db #0x00	; 0
      0006A0 34                    1796 	.db #0x34	; 52	'4'
      0006A1 35                    1797 	.db #0x35	; 53	'5'
      0006A2 36                    1798 	.db #0x36	; 54	'6'
      0006A3 37                    1799 	.db #0x37	; 55	'7'
      0006A4 38                    1800 	.db #0x38	; 56	'8'
      0006A5 39                    1801 	.db #0x39	; 57	'9'
      0006A6 3A                    1802 	.db #0x3a	; 58
      0006A7 3B                    1803 	.db #0x3b	; 59
      0006A8 3C                    1804 	.db #0x3c	; 60
      0006A9 3D                    1805 	.db #0x3d	; 61
      0006AA 3E                    1806 	.db #0x3e	; 62
      0006AB 3F                    1807 	.db #0x3f	; 63
      0006AC 40                    1808 	.db #0x40	; 64
      0006AD 41                    1809 	.db #0x41	; 65	'A'
      0006AE 00                    1810 	.db #0x00	; 0
      0006AF 00                    1811 	.db #0x00	; 0
      0006B0 00                    1812 	.db #0x00	; 0
      0006B1 00                    1813 	.db #0x00	; 0
      0006B2 00                    1814 	.db #0x00	; 0
      0006B3 00                    1815 	.db #0x00	; 0
      0006B4 00                    1816 	.db #0x00	; 0
      0006B5 00                    1817 	.db #0x00	; 0
      0006B6 00                    1818 	.db #0x00	; 0
      0006B7 00                    1819 	.db #0x00	; 0
      0006B8 00                    1820 	.db #0x00	; 0
      0006B9 00                    1821 	.db #0x00	; 0
      0006BA 00                    1822 	.db #0x00	; 0
      0006BB 00                    1823 	.db #0x00	; 0
      0006BC 00                    1824 	.db #0x00	; 0
      0006BD 00                    1825 	.db #0x00	; 0
      0006BE 00                    1826 	.db #0x00	; 0
      0006BF 00                    1827 	.db #0x00	; 0
      0006C0 00                    1828 	.db #0x00	; 0
      0006C1 00                    1829 	.db #0x00	; 0
      0006C2 00                    1830 	.db #0x00	; 0
      0006C3 00                    1831 	.db #0x00	; 0
      0006C4 00                    1832 	.db #0x00	; 0
      0006C5 00                    1833 	.db #0x00	; 0
      0006C6 00                    1834 	.db #0x00	; 0
      0006C7 00                    1835 	.db #0x00	; 0
      0006C8 00                    1836 	.db #0x00	; 0
      0006C9 00                    1837 	.db #0x00	; 0
      0006CA 00                    1838 	.db #0x00	; 0
      0006CB 00                    1839 	.db #0x00	; 0
      0006CC 00                    1840 	.db #0x00	; 0
      0006CD 00                    1841 	.db #0x00	; 0
      0006CE 00                    1842 	.db #0x00	; 0
      0006CF 00                    1843 	.db #0x00	; 0
      0006D0 00                    1844 	.db #0x00	; 0
      0006D1 00                    1845 	.db #0x00	; 0
      0006D2 00                    1846 	.db #0x00	; 0
      0006D3 00                    1847 	.db #0x00	; 0
      0006D4 00                    1848 	.db #0x00	; 0
      0006D5 00                    1849 	.db #0x00	; 0
      0006D6 00                    1850 	.db #0x00	; 0
      0006D7 00                    1851 	.db #0x00	; 0
      0006D8 00                    1852 	.db #0x00	; 0
      0006D9 00                    1853 	.db #0x00	; 0
      0006DA 00                    1854 	.db #0x00	; 0
      0006DB 00                    1855 	.db #0x00	; 0
      0006DC 00                    1856 	.db #0x00	; 0
      0006DD 00                    1857 	.db #0x00	; 0
      0006DE 00                    1858 	.db #0x00	; 0
      0006DF 00                    1859 	.db #0x00	; 0
      0006E0 00                    1860 	.db #0x00	; 0
      0006E1 00                    1861 	.db #0x00	; 0
      0006E2 00                    1862 	.db #0x00	; 0
      0006E3 00                    1863 	.db #0x00	; 0
      0006E4 00                    1864 	.db #0x00	; 0
      0006E5 00                    1865 	.db #0x00	; 0
      0006E6 00                    1866 	.db #0x00	; 0
      0006E7 00                    1867 	.db #0x00	; 0
      0006E8 00                    1868 	.db #0x00	; 0
      0006E9 00                    1869 	.db #0x00	; 0
      0006EA 00                    1870 	.db #0x00	; 0
      0006EB 00                    1871 	.db #0x00	; 0
      0006EC 00                    1872 	.db #0x00	; 0
      0006ED 00                    1873 	.db #0x00	; 0
      0006EE 00                    1874 	.db #0x00	; 0
      0006EF 00                    1875 	.db #0x00	; 0
      0006F0 00                    1876 	.db #0x00	; 0
      0006F1 00                    1877 	.db #0x00	; 0
      0006F2 00                    1878 	.db #0x00	; 0
      0006F3 00                    1879 	.db #0x00	; 0
      0006F4 00                    1880 	.db #0x00	; 0
      0006F5 00                    1881 	.db #0x00	; 0
      0006F6 00                    1882 	.db #0x00	; 0
      0006F7 00                    1883 	.db #0x00	; 0
      0006F8 00                    1884 	.db #0x00	; 0
      0006F9 00                    1885 	.db #0x00	; 0
      0006FA 00                    1886 	.db #0x00	; 0
      0006FB 00                    1887 	.db #0x00	; 0
      0006FC 00                    1888 	.db #0x00	; 0
      0006FD 00                    1889 	.db #0x00	; 0
      0006FE 00                    1890 	.db #0x00	; 0
      0006FF 00                    1891 	.db #0x00	; 0
      000700 00                    1892 	.db #0x00	; 0
      000701 00                    1893 	.db #0x00	; 0
      000702 00                    1894 	.db #0x00	; 0
      000703 00                    1895 	.db #0x00	; 0
      000704 00                    1896 	.db #0x00	; 0
      000705 00                    1897 	.db #0x00	; 0
      000706 00                    1898 	.db #0x00	; 0
      000707 00                    1899 	.db #0x00	; 0
      000708 00                    1900 	.db #0x00	; 0
      000709 00                    1901 	.db #0x00	; 0
      00070A 00                    1902 	.db #0x00	; 0
      00070B 00                    1903 	.db #0x00	; 0
      00070C 00                    1904 	.db #0x00	; 0
      00070D 00                    1905 	.db #0x00	; 0
      00070E 00                    1906 	.db #0x00	; 0
      00070F 00                    1907 	.db #0x00	; 0
      000710 00                    1908 	.db #0x00	; 0
      000711 00                    1909 	.db #0x00	; 0
      000712 00                    1910 	.db #0x00	; 0
      000713 00                    1911 	.db #0x00	; 0
      000714 00                    1912 	.db #0x00	; 0
                                   1913 ;main.c:119: void invader_fire() {    
                                   1914 ;	---------------------------------
                                   1915 ; Function invader_fire
                                   1916 ; ---------------------------------
      000715                       1917 _invader_fire::
                                   1918 ;main.c:120: inv_fire_pause -= 1;
                                   1919 ;setupPair	HL
                                   1920 ;setupPair	HL
      000715 21r21r02              1921 	ld	hl, #_inv_fire_pause
                                   1922 ;setupPair	HL
      000718 2A                    1923 	ld	a, (hl+)
      000719 5F                    1924 	ld	e, a
                                   1925 ;setupPair	HL
      00071A 3A                    1926 	ld	a, (hl-)
      00071B 57                    1927 	ld	d, a
      00071C 1B                    1928 	dec	de
                                   1929 ;setupPair	HL
      00071D 7B                    1930 	ld	a, e
      00071E 22                    1931 	ld	(hl+), a
      00071F 72                    1932 	ld	(hl), d
                                   1933 ;main.c:122: if (!(inv_fired)) { // so once invader shot is fired it doesn't follow the invader still
                                   1934 ;setupPair	HL
      000720 21r23r02              1935 	ld	hl, #_inv_fired
      000723 CB 46                 1936 	bit	0, (hl)
      000725 20 18                 1937 	jr	NZ, 00102$
                                   1938 ;main.c:123: inv_shot_x = invader_x;
                                   1939 ;setupPair	HL
      000727 FAr11r02              1940 	ld	a, (#_invader_x)
                                   1941 ;setupPair	HL
      00072A EAr1Dr02              1942 	ld	(#_inv_shot_x),a
                                   1943 ;setupPair	HL
      00072D FAr12r02              1944 	ld	a, (#_invader_x + 1)
                                   1945 ;setupPair	HL
      000730 EAr1Er02              1946 	ld	(#_inv_shot_x + 1),a
                                   1947 ;main.c:124: inv_shot_y = invader_y;
                                   1948 ;setupPair	HL
      000733 FAr13r02              1949 	ld	a, (#_invader_y)
                                   1950 ;setupPair	HL
      000736 EAr1Fr02              1951 	ld	(#_inv_shot_y),a
                                   1952 ;setupPair	HL
      000739 FAr14r02              1953 	ld	a, (#_invader_y + 1)
                                   1954 ;setupPair	HL
      00073C EAr20r02              1955 	ld	(#_inv_shot_y + 1),a
      00073F                       1956 00102$:
                                   1957 ;main.c:127: if (inv_fire_pause < 0) {
                                   1958 ;setupPair	HL
      00073F FAr22r02              1959 	ld	a, (#_inv_fire_pause + 1)
      000742 CB 7F                 1960 	bit	7, a
      000744 C8                    1961 	ret	Z
                                   1962 ;main.c:128: inv_fired = true;
                                   1963 ;setupPair	HL
      000745 21r23r02              1964 	ld	hl, #_inv_fired
      000748 36 01                 1965 	ld	(hl), #0x01
                                   1966 ;main.c:129: inv_shot_y += 3;            
                                   1967 ;setupPair	HL
      00074A 21r1Fr02              1968 	ld	hl, #_inv_shot_y
      00074D 7E                    1969 	ld	a, (hl)
      00074E C6 03                 1970 	add	a, #0x03
                                   1971 ;setupPair	HL
                                   1972 ;setupPair	HL
      000750 22                    1973 	ld	(hl+), a
      000751 7E                    1974 	ld	a, (hl)
      000752 CE 00                 1975 	adc	a, #0x00
                                   1976 ;setupPair	HL
      000754 77                    1977 	ld	(hl), a
                                   1978 ;main.c:131: }    
      000755 C9                    1979 	ret
                                   1980 ;main.c:135: void turret_hit() {    
                                   1981 ;	---------------------------------
                                   1982 ; Function turret_hit
                                   1983 ; ---------------------------------
      000756                       1984 _turret_hit::
                                   1985 ;main.c:136: if (turret_been_hit) {
                                   1986 ;setupPair	HL
      000756 21r09r02              1987 	ld	hl, #_turret_been_hit
      000759 CB 46                 1988 	bit	0, (hl)
      00075B C8                    1989 	ret	Z
                                   1990 ;main.c:137: if (!(explosion_play)) {                
                                   1991 ;setupPair	HL
      00075C 21r10r02              1992 	ld	hl, #_explosion_play
      00075F CB 46                 1993 	bit	0, (hl)
      000761 20 10                 1994 	jr	NZ, 00102$
                                   1995 ;main.c:139: NR41_REG = 0x09;  
      000763 3E 09                 1996 	ld	a, #0x09
      000765 E0r00                 1997 	ldh	(_NR41_REG + 0), a
                                   1998 ;main.c:140: NR42_REG = 0xF1; 
      000767 3E F1                 1999 	ld	a, #0xf1
      000769 E0r00                 2000 	ldh	(_NR42_REG + 0), a
                                   2001 ;main.c:141: NR43_REG = 0x81;  
      00076B 3E 81                 2002 	ld	a, #0x81
      00076D E0r00                 2003 	ldh	(_NR43_REG + 0), a
                                   2004 ;main.c:142: NR44_REG = 0xC0;  
      00076F 3E C0                 2005 	ld	a, #0xc0
      000771 E0r00                 2006 	ldh	(_NR44_REG + 0), a
      000773                       2007 00102$:
                                   2008 ;main.c:145: explosion_play = true;        
                                   2009 ;setupPair	HL
      000773 21r10r02              2010 	ld	hl, #_explosion_play
      000776 36 01                 2011 	ld	(hl), #0x01
                                   2012 ;main.c:146: turret_anim_delay -= 1;
                                   2013 ;setupPair	HL
                                   2014 ;setupPair	HL
      000778 21r0Er02              2015 	ld	hl, #_turret_anim_delay
                                   2016 ;setupPair	HL
      00077B 2A                    2017 	ld	a, (hl+)
      00077C 5F                    2018 	ld	e, a
                                   2019 ;setupPair	HL
      00077D 3A                    2020 	ld	a, (hl-)
      00077E 57                    2021 	ld	d, a
      00077F 1B                    2022 	dec	de
                                   2023 ;setupPair	HL
      000780 7B                    2024 	ld	a, e
      000781 22                    2025 	ld	(hl+), a
      000782 72                    2026 	ld	(hl), d
                                   2027 ;main.c:147: turret_blast_delay -= 1;
                                   2028 ;setupPair	HL
                                   2029 ;setupPair	HL
      000783 21r0Ar02              2030 	ld	hl, #_turret_blast_delay
                                   2031 ;setupPair	HL
      000786 2A                    2032 	ld	a, (hl+)
      000787 5F                    2033 	ld	e, a
                                   2034 ;setupPair	HL
      000788 3A                    2035 	ld	a, (hl-)
      000789 57                    2036 	ld	d, a
      00078A 1B                    2037 	dec	de
                                   2038 ;setupPair	HL
      00078B 7B                    2039 	ld	a, e
      00078C 22                    2040 	ld	(hl+), a
      00078D 72                    2041 	ld	(hl), d
                                   2042 ;main.c:149: if (turret_anim_delay < 0) {
                                   2043 ;setupPair	HL
      00078E FAr0Fr02              2044 	ld	a, (#_turret_anim_delay + 1)
      000791 CB 7F                 2045 	bit	7, a
      000793 28 37                 2046 	jr	Z, 00106$
                                   2047 ;main.c:150: turret_exp_frame += 1;
                                   2048 ;setupPair	HL
      000795 21r0Cr02              2049 	ld	hl, #_turret_exp_frame
      000798 34                    2050 	inc	(hl)
      000799 20 02                 2051 	jr	NZ, 00138$
                                   2052 ;setupPair	HL
      00079B 23                    2053 	inc	hl
      00079C 34                    2054 	inc	(hl)
      00079D                       2055 00138$:
                                   2056 ;main.c:151: if (turret_exp_frame > 2) {
                                   2057 ;setupPair	HL
      00079D 21r0Cr02              2058 	ld	hl, #_turret_exp_frame
      0007A0 3E 02                 2059 	ld	a, #0x02
      0007A2 96                    2060 	sub	a, (hl)
      0007A3 23                    2061 	inc	hl
      0007A4 3E 00                 2062 	ld	a, #0x00
      0007A6 9E                    2063 	sbc	a, (hl)
      0007A7 3E 00                 2064 	ld	a, #0x00
      0007A9 57                    2065 	ld	d, a
      0007AA CB 7E                 2066 	bit	7, (hl)
      0007AC 28 07                 2067 	jr	Z, 00139$
      0007AE CB 7A                 2068 	bit	7, d
      0007B0 20 08                 2069 	jr	NZ, 00140$
      0007B2 BF                    2070 	cp	a, a
      0007B3 18 05                 2071 	jr	00140$
      0007B5                       2072 00139$:
      0007B5 CB 7A                 2073 	bit	7, d
      0007B7 28 01                 2074 	jr	Z, 00140$
      0007B9 37                    2075 	scf
      0007BA                       2076 00140$:
      0007BA 30 08                 2077 	jr	NC, 00104$
                                   2078 ;main.c:152: turret_exp_frame = 1;                
                                   2079 ;setupPair	HL
      0007BC 21r0Cr02              2080 	ld	hl, #_turret_exp_frame
                                   2081 ;setupPair	HL
      0007BF 3E 01                 2082 	ld	a, #0x01
      0007C1 22                    2083 	ld	(hl+), a
      0007C2 AF                    2084 	xor	a, a
      0007C3 77                    2085 	ld	(hl), a
      0007C4                       2086 00104$:
                                   2087 ;main.c:154: turret_anim_delay = 10;  
                                   2088 ;setupPair	HL
      0007C4 21r0Er02              2089 	ld	hl, #_turret_anim_delay
                                   2090 ;setupPair	HL
      0007C7 3E 0A                 2091 	ld	a, #0x0a
      0007C9 22                    2092 	ld	(hl+), a
      0007CA AF                    2093 	xor	a, a
      0007CB 77                    2094 	ld	(hl), a
      0007CC                       2095 00106$:
                                   2096 ;main.c:157: if (turret_blast_delay < 0) {
                                   2097 ;setupPair	HL
      0007CC 21r0Br02              2098 	ld	hl, #_turret_blast_delay + 1
      0007CF CB 7E                 2099 	bit	7, (hl)
      0007D1 C8                    2100 	ret	Z
                                   2101 ;main.c:158: turret_blast_delay = 60;
                                   2102 ;setupPair	HL
      0007D2 2B                    2103 	dec	hl
                                   2104 ;setupPair	HL
      0007D3 3E 3C                 2105 	ld	a, #0x3c
      0007D5 22                    2106 	ld	(hl+), a
      0007D6 AF                    2107 	xor	a, a
      0007D7 77                    2108 	ld	(hl), a
                                   2109 ;main.c:159: turret_been_hit = false;                 
                                   2110 ;setupPair	HL
      0007D8 21r09r02              2111 	ld	hl, #_turret_been_hit
      0007DB 36 00                 2112 	ld	(hl), #0x00
                                   2113 ;main.c:160: explosion_play = false;
                                   2114 ;setupPair	HL
      0007DD 21r10r02              2115 	ld	hl, #_explosion_play
      0007E0 36 00                 2116 	ld	(hl), #0x00
                                   2117 ;main.c:161: turret_x = 84; // reset turret x
                                   2118 ;setupPair	HL
      0007E2 21r00r02              2119 	ld	hl, #_turret_x
                                   2120 ;setupPair	HL
      0007E5 3E 54                 2121 	ld	a, #0x54
      0007E7 22                    2122 	ld	(hl+), a
      0007E8 AF                    2123 	xor	a, a
      0007E9 77                    2124 	ld	(hl), a
                                   2125 ;main.c:162: turret_y = 125; // reset turret y
                                   2126 ;setupPair	HL
      0007EA 21r02r02              2127 	ld	hl, #_turret_y
                                   2128 ;setupPair	HL
      0007ED 3E 7D                 2129 	ld	a, #0x7d
      0007EF 22                    2130 	ld	(hl+), a
      0007F0 AF                    2131 	xor	a, a
      0007F1 77                    2132 	ld	(hl), a
                                   2133 ;main.c:165: }
      0007F2 C9                    2134 	ret
                                   2135 ;main.c:169: void invader_hit() {
                                   2136 ;	---------------------------------
                                   2137 ; Function invader_hit
                                   2138 ; ---------------------------------
      0007F3                       2139 _invader_hit::
                                   2140 ;main.c:170: if (been_hit) {
                                   2141 ;setupPair	HL
      0007F3 21r24r02              2142 	ld	hl, #_been_hit
      0007F6 CB 46                 2143 	bit	0, (hl)
      0007F8 C8                    2144 	ret	Z
                                   2145 ;main.c:171: if (!(boom_play)) {
                                   2146 ;setupPair	HL
      0007F9 21r2Br02              2147 	ld	hl, #_boom_play
      0007FC CB 46                 2148 	bit	0, (hl)
      0007FE 20 0F                 2149 	jr	NZ, 00102$
                                   2150 ;main.c:173: NR41_REG = 0x00;  
      000800 AF                    2151 	xor	a, a
      000801 E0r00                 2152 	ldh	(_NR41_REG + 0), a
                                   2153 ;main.c:174: NR42_REG = 0x92; 
      000803 3E 92                 2154 	ld	a, #0x92
      000805 E0r00                 2155 	ldh	(_NR42_REG + 0), a
                                   2156 ;main.c:175: NR43_REG = 0x4f;  
      000807 3E 4F                 2157 	ld	a, #0x4f
      000809 E0r00                 2158 	ldh	(_NR43_REG + 0), a
                                   2159 ;main.c:176: NR44_REG = 0xC0; 
      00080B 3E C0                 2160 	ld	a, #0xc0
      00080D E0r00                 2161 	ldh	(_NR44_REG + 0), a
      00080F                       2162 00102$:
                                   2163 ;main.c:179: inv_shot_x = 165; // hide shot
                                   2164 ;setupPair	HL
      00080F 21r1Dr02              2165 	ld	hl, #_inv_shot_x
                                   2166 ;setupPair	HL
      000812 3E A5                 2167 	ld	a, #0xa5
      000814 22                    2168 	ld	(hl+), a
      000815 AF                    2169 	xor	a, a
      000816 77                    2170 	ld	(hl), a
                                   2171 ;main.c:180: inv_shot_y = 144; // hide shot
                                   2172 ;setupPair	HL
      000817 21r1Fr02              2173 	ld	hl, #_inv_shot_y
                                   2174 ;setupPair	HL
      00081A 3E 90                 2175 	ld	a, #0x90
      00081C 22                    2176 	ld	(hl+), a
      00081D AF                    2177 	xor	a, a
      00081E 77                    2178 	ld	(hl), a
                                   2179 ;main.c:181: inv_fire_pause = 180; // and reset pause
                                   2180 ;setupPair	HL
      00081F 21r21r02              2181 	ld	hl, #_inv_fire_pause
                                   2182 ;setupPair	HL
      000822 3E B4                 2183 	ld	a, #0xb4
      000824 22                    2184 	ld	(hl+), a
      000825 AF                    2185 	xor	a, a
      000826 77                    2186 	ld	(hl), a
                                   2187 ;main.c:183: boom_play = true;        
                                   2188 ;setupPair	HL
      000827 21r2Br02              2189 	ld	hl, #_boom_play
      00082A 36 01                 2190 	ld	(hl), #0x01
                                   2191 ;main.c:184: blast_delay -= 1;
                                   2192 ;setupPair	HL
                                   2193 ;setupPair	HL
      00082C 21r29r02              2194 	ld	hl, #_blast_delay
                                   2195 ;setupPair	HL
      00082F 2A                    2196 	ld	a, (hl+)
      000830 5F                    2197 	ld	e, a
                                   2198 ;setupPair	HL
      000831 3A                    2199 	ld	a, (hl-)
      000832 57                    2200 	ld	d, a
      000833 1B                    2201 	dec	de
                                   2202 ;setupPair	HL
      000834 7B                    2203 	ld	a, e
      000835 22                    2204 	ld	(hl+), a
      000836 72                    2205 	ld	(hl), d
                                   2206 ;main.c:186: if (blast_delay < 0) {
                                   2207 ;setupPair	HL
      000837 CB 7E                 2208 	bit	7, (hl)
      000839 C8                    2209 	ret	Z
                                   2210 ;main.c:187: blast_delay = 60;
                                   2211 ;setupPair	HL
      00083A 2B                    2212 	dec	hl
                                   2213 ;setupPair	HL
      00083B 3E 3C                 2214 	ld	a, #0x3c
      00083D 22                    2215 	ld	(hl+), a
      00083E AF                    2216 	xor	a, a
      00083F 77                    2217 	ld	(hl), a
                                   2218 ;main.c:188: boom_play = false;
                                   2219 ;setupPair	HL
      000840 21r2Br02              2220 	ld	hl, #_boom_play
      000843 36 00                 2221 	ld	(hl), #0x00
                                   2222 ;main.c:189: been_hit = false;
                                   2223 ;setupPair	HL
      000845 21r24r02              2224 	ld	hl, #_been_hit
      000848 36 00                 2225 	ld	(hl), #0x00
                                   2226 ;main.c:190: bx = 165; // move boom off screen (following invader)
                                   2227 ;setupPair	HL
      00084A 21r25r02              2228 	ld	hl, #_bx
                                   2229 ;setupPair	HL
      00084D 3E A5                 2230 	ld	a, #0xa5
      00084F 22                    2231 	ld	(hl+), a
      000850 AF                    2232 	xor	a, a
      000851 77                    2233 	ld	(hl), a
                                   2234 ;main.c:191: by = 144;
                                   2235 ;setupPair	HL
      000852 21r27r02              2236 	ld	hl, #_by
                                   2237 ;setupPair	HL
      000855 3E 90                 2238 	ld	a, #0x90
      000857 22                    2239 	ld	(hl+), a
      000858 AF                    2240 	xor	a, a
      000859 77                    2241 	ld	(hl), a
                                   2242 ;main.c:192: invader_x = ((unsigned char)rand() % (140 - 24 + 1)) + 24; // move invader to random x position       
      00085A CDr00r00              2243 	call	_rand
      00085D 7B                    2244 	ld	a, e
      00085E 26 75                 2245 	ld	h, #0x75
                                   2246 ;	spillPairReg hl
                                   2247 ;	spillPairReg hl
      000860 E5                    2248 	push	hl
      000861 33                    2249 	inc	sp
      000862 F5                    2250 	push	af
      000863 33                    2251 	inc	sp
      000864 CDr00r00              2252 	call	__moduchar
      000867 E1                    2253 	pop	hl
      000868 16 00                 2254 	ld	d, #0x00
      00086A 21 18 00              2255 	ld	hl, #0x0018
      00086D 19                    2256 	add	hl, de
      00086E 7D                    2257 	ld	a, l
      00086F EAr11r02              2258 	ld	(_invader_x), a
      000872 7C                    2259 	ld	a, h
      000873 EAr12r02              2260 	ld	(_invader_x + 1), a
                                   2261 ;main.c:193: invader_y = 40; // move invader back up after being hit
                                   2262 ;setupPair	HL
      000876 21r13r02              2263 	ld	hl, #_invader_y
                                   2264 ;setupPair	HL
      000879 3E 28                 2265 	ld	a, #0x28
      00087B 22                    2266 	ld	(hl+), a
      00087C AF                    2267 	xor	a, a
      00087D 77                    2268 	ld	(hl), a
                                   2269 ;main.c:196: }
      00087E C9                    2270 	ret
                                   2271 ;main.c:201: void main() {
                                   2272 ;	---------------------------------
                                   2273 ; Function main
                                   2274 ; ---------------------------------
      00087F                       2275 _main::
      00087F 3B                    2276 	dec	sp
      000880 3B                    2277 	dec	sp
                                   2278 ;main.c:203: set_bkg_data(0, 66, title_data);
      000881 11r8Dr01              2279 	ld	de, #_title_data
      000884 D5                    2280 	push	de
      000885 21 00 42              2281 	ld	hl, #0x4200
      000888 E5                    2282 	push	hl
      000889 CDr00r00              2283 	call	_set_bkg_data
      00088C E8 04                 2284 	add	sp, #4
                                   2285 ;main.c:204: set_bkg_tiles(0, 0, 20, 18, title_map);
      00088E 11rADr05              2286 	ld	de, #_title_map
      000891 D5                    2287 	push	de
      000892 21 14 12              2288 	ld	hl, #0x1214
      000895 E5                    2289 	push	hl
      000896 AF                    2290 	xor	a, a
      000897 0F                    2291 	rrca
      000898 F5                    2292 	push	af
      000899 CDr00r00              2293 	call	_set_bkg_tiles
      00089C E8 06                 2294 	add	sp, #6
                                   2295 ;main.c:205: SHOW_BKG;
      00089E F0r00                 2296 	ldh	a, (_LCDC_REG + 0)
      0008A0 F6 01                 2297 	or	a, #0x01
      0008A2 E0r00                 2298 	ldh	(_LCDC_REG + 0), a
                                   2299 ;main.c:206: DISPLAY_ON;
      0008A4 F0r00                 2300 	ldh	a, (_LCDC_REG + 0)
      0008A6 F6 80                 2301 	or	a, #0x80
      0008A8 E0r00                 2302 	ldh	(_LCDC_REG + 0), a
                                   2303 ;main.c:207: waitpad(J_START); // check for Start to be pressed
      0008AA 3E 80                 2304 	ld	a, #0x80
      0008AC F5                    2305 	push	af
      0008AD 33                    2306 	inc	sp
      0008AE CDr00r00              2307 	call	_waitpad
      0008B1 33                    2308 	inc	sp
                                   2309 ;main.c:212: font_init();
      0008B2 CDr00r00              2310 	call	_font_init
                                   2311 ;main.c:213: main_font = font_load(font_min);
      0008B5 11r00r00              2312 	ld	de, #_font_min
      0008B8 D5                    2313 	push	de
      0008B9 CDr00r00              2314 	call	_font_load
      0008BC E1                    2315 	pop	hl
                                   2316 ;main.c:215: font_set(main_font);
      0008BD D5                    2317 	push	de
      0008BE CDr00r00              2318 	call	_font_set
      0008C1 E1                    2319 	pop	hl
                                   2320 ;main.c:219: NR52_REG = 0x80;    // $80 is 1000 0000 in binary and turns on sound
      0008C2 3E 80                 2321 	ld	a, #0x80
      0008C4 E0r00                 2322 	ldh	(_NR52_REG + 0), a
                                   2323 ;main.c:220: NR50_REG = 0x77;    // $77 is 0111 0111 in binary and sets the volume for both left and right channel just set to max 0x77
      0008C6 3E 77                 2324 	ld	a, #0x77
      0008C8 E0r00                 2325 	ldh	(_NR50_REG + 0), a
                                   2326 ;main.c:221: NR51_REG = 0xFF;    // $FF is 1111 1111 in binary, select which chanels we want to use in this case all of them. 
      0008CA 3E FF                 2327 	ld	a, #0xff
      0008CC E0r00                 2328 	ldh	(_NR51_REG + 0), a
                                   2329 ;main.c:227: SPRITES_8x16;
      0008CE F0r00                 2330 	ldh	a, (_LCDC_REG + 0)
      0008D0 F6 04                 2331 	or	a, #0x04
      0008D2 E0r00                 2332 	ldh	(_LCDC_REG + 0), a
                                   2333 ;main.c:232: set_sprite_data(0, 16, sprites_turret); // starting at zero, push four 8x8 tiles from turret array into sprite data
      0008D4 11r00r00              2334 	ld	de, #_sprites_turret
      0008D7 D5                    2335 	push	de
      0008D8 3E 10                 2336 	ld	a, #0x10
      0008DA F5                    2337 	push	af
      0008DB 33                    2338 	inc	sp
      0008DC AF                    2339 	xor	a, a
      0008DD F5                    2340 	push	af
      0008DE 33                    2341 	inc	sp
      0008DF CDr00r00              2342 	call	_set_sprite_data
      0008E2 E8 04                 2343 	add	sp, #4
                                   2344 ;c:/gbdk/include/gb/gb.h:1174: shadow_OAM[nb].tile=tile;
      0008E4 21r02r00              2345 	ld	hl, #(_shadow_OAM + 2)
      0008E7 36 00                 2346 	ld	(hl), #0x00
      0008E9 21r06r00              2347 	ld	hl, #(_shadow_OAM + 6)
      0008EC 36 02                 2348 	ld	(hl), #0x02
      0008EE 21r0Ar00              2349 	ld	hl, #(_shadow_OAM + 10)
      0008F1 36 04                 2350 	ld	(hl), #0x04
      0008F3 21r0Er00              2351 	ld	hl, #(_shadow_OAM + 14)
      0008F6 36 06                 2352 	ld	(hl), #0x06
      0008F8 21r12r00              2353 	ld	hl, #(_shadow_OAM + 18)
      0008FB 36 08                 2354 	ld	(hl), #0x08
      0008FD 21r16r00              2355 	ld	hl, #(_shadow_OAM + 22)
      000900 36 0A                 2356 	ld	(hl), #0x0a
      000902 21r1Ar00              2357 	ld	hl, #(_shadow_OAM + 26)
      000905 36 0C                 2358 	ld	(hl), #0x0c
                                   2359 ;main.c:250: set_sprite_data(16, 16, sprites_invader);
      000907 11r00r01              2360 	ld	de, #_sprites_invader
      00090A D5                    2361 	push	de
      00090B 3E 10                 2362 	ld	a, #0x10
      00090D F5                    2363 	push	af
      00090E 33                    2364 	inc	sp
      00090F 3E 10                 2365 	ld	a, #0x10
      000911 F5                    2366 	push	af
      000912 33                    2367 	inc	sp
      000913 CDr00r00              2368 	call	_set_sprite_data
      000916 E8 04                 2369 	add	sp, #4
                                   2370 ;c:/gbdk/include/gb/gb.h:1174: shadow_OAM[nb].tile=tile;
      000918 21r22r00              2371 	ld	hl, #(_shadow_OAM + 34)
      00091B 36 10                 2372 	ld	(hl), #0x10
      00091D 21r26r00              2373 	ld	hl, #(_shadow_OAM + 38)
      000920 36 12                 2374 	ld	(hl), #0x12
      000922 21r2Ar00              2375 	ld	hl, #(_shadow_OAM + 42)
      000925 36 14                 2376 	ld	(hl), #0x14
      000927 21r2Er00              2377 	ld	hl, #(_shadow_OAM + 46)
      00092A 36 16                 2378 	ld	(hl), #0x16
      00092C 21r32r00              2379 	ld	hl, #(_shadow_OAM + 50)
      00092F 36 18                 2380 	ld	(hl), #0x18
      000931 21r36r00              2381 	ld	hl, #(_shadow_OAM + 54)
      000934 36 1A                 2382 	ld	(hl), #0x1a
      000936 21r3Ar00              2383 	ld	hl, #(_shadow_OAM + 58)
      000939 36 1C                 2384 	ld	(hl), #0x1c
                                   2385 ;main.c:267: SHOW_SPRITES;
      00093B F0r00                 2386 	ldh	a, (_LCDC_REG + 0)
      00093D F6 02                 2387 	or	a, #0x02
      00093F E0r00                 2388 	ldh	(_LCDC_REG + 0), a
                                   2389 ;main.c:272: while(1) {
      000941                       2390 00156$:
                                   2391 ;main.c:274: if(game_over) {
                                   2392 ;setupPair	HL
      000941 21r30r02              2393 	ld	hl, #_game_over
      000944 CB 46                 2394 	bit	0, (hl)
      000946 CArFDr09              2395 	jp	Z, 00104$
                                   2396 ;main.c:276: gotoxy(1, 1);        
      000949 21 01 01              2397 	ld	hl, #0x101
      00094C E5                    2398 	push	hl
      00094D CDr00r00              2399 	call	_gotoxy
      000950 E1                    2400 	pop	hl
                                   2401 ;main.c:277: printf("SCORE %d ", score);
                                   2402 ;setupPair	HL
      000951 21r2Cr02              2403 	ld	hl, #_score
                                   2404 ;setupPair	HL
      000954 2A                    2405 	ld	a, (hl+)
      000955 5F                    2406 	ld	e, a
      000956 56                    2407 	ld	d, (hl)
      000957 D5                    2408 	push	de
      000958 11r7Er0D              2409 	ld	de, #___str_0
      00095B D5                    2410 	push	de
      00095C CDr00r00              2411 	call	_printf
      00095F E8 04                 2412 	add	sp, #4
                                   2413 ;main.c:278: gotoxy(12, 1);
      000961 21 0C 01              2414 	ld	hl, #0x10c
      000964 E5                    2415 	push	hl
      000965 CDr00r00              2416 	call	_gotoxy
      000968 E1                    2417 	pop	hl
                                   2418 ;main.c:279: printf("LIVES %d ", lives);
                                   2419 ;setupPair	HL
      000969 21r2Er02              2420 	ld	hl, #_lives
                                   2421 ;setupPair	HL
      00096C 2A                    2422 	ld	a, (hl+)
      00096D 5F                    2423 	ld	e, a
      00096E 56                    2424 	ld	d, (hl)
      00096F D5                    2425 	push	de
      000970 11r88r0D              2426 	ld	de, #___str_1
      000973 D5                    2427 	push	de
      000974 CDr00r00              2428 	call	_printf
      000977 E8 04                 2429 	add	sp, #4
                                   2430 ;main.c:280: gotoxy(5, 8);
      000979 21 05 08              2431 	ld	hl, #0x805
      00097C E5                    2432 	push	hl
      00097D CDr00r00              2433 	call	_gotoxy
      000980 E1                    2434 	pop	hl
                                   2435 ;main.c:281: printf("GAME  OVER");
      000981 11r92r0D              2436 	ld	de, #___str_2
      000984 D5                    2437 	push	de
      000985 CDr00r00              2438 	call	_printf
      000988 E1                    2439 	pop	hl
                                   2440 ;main.c:285: if(joypad() & J_START) {                    
      000989 CDr00r00              2441 	call	_joypad
      00098C 7B                    2442 	ld	a, e
      00098D 07                    2443 	rlca
      00098E 30 6D                 2444 	jr	NC, 00104$
                                   2445 ;main.c:286: turret_x = 84;  // turret starting x
                                   2446 ;setupPair	HL
      000990 21r00r02              2447 	ld	hl, #_turret_x
                                   2448 ;setupPair	HL
      000993 3E 54                 2449 	ld	a, #0x54
      000995 22                    2450 	ld	(hl+), a
      000996 AF                    2451 	xor	a, a
      000997 77                    2452 	ld	(hl), a
                                   2453 ;main.c:287: turret_y = 125; // turret starting y
                                   2454 ;setupPair	HL
      000998 21r02r02              2455 	ld	hl, #_turret_y
                                   2456 ;setupPair	HL
      00099B 3E 7D                 2457 	ld	a, #0x7d
      00099D 22                    2458 	ld	(hl+), a
      00099E AF                    2459 	xor	a, a
      00099F 77                    2460 	ld	(hl), a
                                   2461 ;main.c:288: invader_x = 85; // invader starting x
                                   2462 ;setupPair	HL
      0009A0 21r11r02              2463 	ld	hl, #_invader_x
                                   2464 ;setupPair	HL
      0009A3 3E 55                 2465 	ld	a, #0x55
      0009A5 22                    2466 	ld	(hl+), a
      0009A6 AF                    2467 	xor	a, a
      0009A7 77                    2468 	ld	(hl), a
                                   2469 ;main.c:289: invader_y = 40; // invader starting y
                                   2470 ;setupPair	HL
      0009A8 21r13r02              2471 	ld	hl, #_invader_y
                                   2472 ;setupPair	HL
      0009AB 3E 28                 2473 	ld	a, #0x28
      0009AD 22                    2474 	ld	(hl+), a
      0009AE AF                    2475 	xor	a, a
      0009AF 77                    2476 	ld	(hl), a
                                   2477 ;main.c:290: i_dir = 1;      // 1 = right, 0 = left
                                   2478 ;setupPair	HL
      0009B0 21r1Br02              2479 	ld	hl, #_i_dir
                                   2480 ;setupPair	HL
      0009B3 3E 01                 2481 	ld	a, #0x01
      0009B5 22                    2482 	ld	(hl+), a
      0009B6 AF                    2483 	xor	a, a
      0009B7 77                    2484 	ld	(hl), a
                                   2485 ;main.c:291: lives = 3; // reset lives
                                   2486 ;setupPair	HL
      0009B8 21r2Er02              2487 	ld	hl, #_lives
                                   2488 ;setupPair	HL
      0009BB 3E 03                 2489 	ld	a, #0x03
      0009BD 22                    2490 	ld	(hl+), a
      0009BE AF                    2491 	xor	a, a
      0009BF 77                    2492 	ld	(hl), a
                                   2493 ;main.c:292: score = 0; // reset score
      0009C0 AF                    2494 	xor	a, a
                                   2495 ;setupPair	HL
      0009C1 21r2Cr02              2496 	ld	hl, #_score
                                   2497 ;setupPair	HL
      0009C4 22                    2498 	ld	(hl+), a
      0009C5 77                    2499 	ld	(hl), a
                                   2500 ;main.c:293: explosion_play = false; 
                                   2501 ;setupPair	HL
      0009C6 21r10r02              2502 	ld	hl, #_explosion_play
      0009C9 36 00                 2503 	ld	(hl), #0x00
                                   2504 ;main.c:294: turret_been_hit = false;  
                                   2505 ;setupPair	HL
      0009CB 21r09r02              2506 	ld	hl, #_turret_been_hit
      0009CE 36 00                 2507 	ld	(hl), #0x00
                                   2508 ;c:/gbdk/include/gb/gb.h:1247: OAM_item_t * itm = &shadow_OAM[nb];
      0009D0 21r20r00              2509 	ld	hl, #(_shadow_OAM + 32)
                                   2510 ;c:/gbdk/include/gb/gb.h:1248: itm->y=y, itm->x=x;
      0009D3 3E 28                 2511 	ld	a, #0x28
      0009D5 22                    2512 	ld	(hl+), a
      0009D6 36 55                 2513 	ld	(hl), #0x55
                                   2514 ;main.c:296: move_sprite(9, invader_x + 8, invader_y);             
                                   2515 ;setupPair	HL
      0009D8 21r13r02              2516 	ld	hl, #_invader_y
      0009DB 46                    2517 	ld	b, (hl)
                                   2518 ;setupPair	HL
      0009DC FAr11r02              2519 	ld	a, (#_invader_x)
      0009DF C6 08                 2520 	add	a, #0x08
      0009E1 4F                    2521 	ld	c, a
                                   2522 ;c:/gbdk/include/gb/gb.h:1247: OAM_item_t * itm = &shadow_OAM[nb];
      0009E2 21r24r00              2523 	ld	hl, #(_shadow_OAM + 36)
                                   2524 ;c:/gbdk/include/gb/gb.h:1248: itm->y=y, itm->x=x;
      0009E5 78                    2525 	ld	a, b
      0009E6 22                    2526 	ld	(hl+), a
      0009E7 71                    2527 	ld	(hl), c
                                   2528 ;main.c:297: game_over = false; 
                                   2529 ;setupPair	HL
      0009E8 21r30r02              2530 	ld	hl, #_game_over
      0009EB 36 00                 2531 	ld	(hl), #0x00
                                   2532 ;main.c:298: gotoxy(5, 8);
      0009ED 21 05 08              2533 	ld	hl, #0x805
      0009F0 E5                    2534 	push	hl
      0009F1 CDr00r00              2535 	call	_gotoxy
      0009F4 E1                    2536 	pop	hl
                                   2537 ;main.c:299: printf("          "); // removes "GAME OVER" text                                                             
      0009F5 11r9Dr0D              2538 	ld	de, #___str_3
      0009F8 D5                    2539 	push	de
      0009F9 CDr00r00              2540 	call	_printf
      0009FC E1                    2541 	pop	hl
      0009FD                       2542 00104$:
                                   2543 ;main.c:305: if(!(game_over)){              
                                   2544 ;setupPair	HL
      0009FD 21r30r02              2545 	ld	hl, #_game_over
      000A00 CB 46                 2546 	bit	0, (hl)
      000A02 C2r41r09              2547 	jp	NZ, 00156$
                                   2548 ;main.c:307: move_anim_inv(); 
      000A05 CDr00r00              2549 	call	_move_anim_inv
                                   2550 ;main.c:310: invader_fire();      
      000A08 CDr15r07              2551 	call	_invader_fire
                                   2552 ;main.c:313: invader_hit(); 
      000A0B CDrF3r07              2553 	call	_invader_hit
                                   2554 ;main.c:316: turret_hit();
      000A0E CDr56r07              2555 	call	_turret_hit
                                   2556 ;main.c:321: if(joypad() & J_RIGHT && !(turret_been_hit)) {            
      000A11 CDr00r00              2557 	call	_joypad
      000A14 7B                    2558 	ld	a, e
      000A15 0F                    2559 	rrca
      000A16 30 2D                 2560 	jr	NC, 00108$
                                   2561 ;setupPair	HL
      000A18 21r09r02              2562 	ld	hl, #_turret_been_hit
      000A1B CB 46                 2563 	bit	0, (hl)
      000A1D 20 26                 2564 	jr	NZ, 00108$
                                   2565 ;main.c:322: if(turret_x < 142) {
                                   2566 ;setupPair	HL
      000A1F 21r00r02              2567 	ld	hl, #_turret_x
      000A22 2A                    2568 	ld	a, (hl+)
      000A23 D6 8E                 2569 	sub	a, #0x8e
      000A25 7E                    2570 	ld	a, (hl)
      000A26 DE 00                 2571 	sbc	a, #0x00
      000A28 56                    2572 	ld	d, (hl)
      000A29 3E 00                 2573 	ld	a, #0x00
      000A2B CB 7F                 2574 	bit	7,a
      000A2D 28 07                 2575 	jr	Z, 00344$
      000A2F CB 7A                 2576 	bit	7, d
      000A31 20 08                 2577 	jr	NZ, 00345$
      000A33 BF                    2578 	cp	a, a
      000A34 18 05                 2579 	jr	00345$
      000A36                       2580 00344$:
      000A36 CB 7A                 2581 	bit	7, d
      000A38 28 01                 2582 	jr	Z, 00345$
      000A3A 37                    2583 	scf
      000A3B                       2584 00345$:
      000A3B 30 08                 2585 	jr	NC, 00108$
                                   2586 ;main.c:323: turret_x += 1; 
                                   2587 ;setupPair	HL
      000A3D 21r00r02              2588 	ld	hl, #_turret_x
      000A40 34                    2589 	inc	(hl)
      000A41 20 02                 2590 	jr	NZ, 00346$
                                   2591 ;setupPair	HL
      000A43 23                    2592 	inc	hl
      000A44 34                    2593 	inc	(hl)
      000A45                       2594 00346$:
      000A45                       2595 00108$:
                                   2596 ;main.c:327: if(joypad() & J_LEFT && !(turret_been_hit)) {            
      000A45 CDr00r00              2597 	call	_joypad
      000A48 CB 4B                 2598 	bit	1, e
      000A4A 28 31                 2599 	jr	Z, 00113$
                                   2600 ;setupPair	HL
      000A4C 21r09r02              2601 	ld	hl, #_turret_been_hit
      000A4F CB 46                 2602 	bit	0, (hl)
      000A51 20 2A                 2603 	jr	NZ, 00113$
                                   2604 ;main.c:328: if(turret_x > 21) {
                                   2605 ;setupPair	HL
      000A53 21r00r02              2606 	ld	hl, #_turret_x
      000A56 3E 15                 2607 	ld	a, #0x15
      000A58 96                    2608 	sub	a, (hl)
      000A59 23                    2609 	inc	hl
      000A5A 3E 00                 2610 	ld	a, #0x00
      000A5C 9E                    2611 	sbc	a, (hl)
      000A5D 3E 00                 2612 	ld	a, #0x00
      000A5F 57                    2613 	ld	d, a
      000A60 CB 7E                 2614 	bit	7, (hl)
      000A62 28 07                 2615 	jr	Z, 00348$
      000A64 CB 7A                 2616 	bit	7, d
      000A66 20 08                 2617 	jr	NZ, 00349$
      000A68 BF                    2618 	cp	a, a
      000A69 18 05                 2619 	jr	00349$
      000A6B                       2620 00348$:
      000A6B CB 7A                 2621 	bit	7, d
      000A6D 28 01                 2622 	jr	Z, 00349$
      000A6F 37                    2623 	scf
      000A70                       2624 00349$:
      000A70 30 0B                 2625 	jr	NC, 00113$
                                   2626 ;main.c:329: turret_x -= 1; 
                                   2627 ;setupPair	HL
                                   2628 ;setupPair	HL
      000A72 21r00r02              2629 	ld	hl, #_turret_x
                                   2630 ;setupPair	HL
      000A75 2A                    2631 	ld	a, (hl+)
      000A76 5F                    2632 	ld	e, a
                                   2633 ;setupPair	HL
      000A77 3A                    2634 	ld	a, (hl-)
      000A78 57                    2635 	ld	d, a
      000A79 1B                    2636 	dec	de
                                   2637 ;setupPair	HL
      000A7A 7B                    2638 	ld	a, e
      000A7B 22                    2639 	ld	(hl+), a
      000A7C 72                    2640 	ld	(hl), d
      000A7D                       2641 00113$:
                                   2642 ;main.c:333: if(joypad() & J_A && !(been_pressed) && !(shot_fired) && !(turret_been_hit)) {                 
      000A7D CDr00r00              2643 	call	_joypad
      000A80 CB 63                 2644 	bit	4, e
      000A82 28 4B                 2645 	jr	Z, 00116$
                                   2646 ;setupPair	HL
      000A84 21r31r02              2647 	ld	hl, #_been_pressed
      000A87 CB 46                 2648 	bit	0, (hl)
      000A89 20 44                 2649 	jr	NZ, 00116$
                                   2650 ;setupPair	HL
      000A8B 21r04r02              2651 	ld	hl, #_shot_fired
      000A8E CB 46                 2652 	bit	0, (hl)
      000A90 20 3D                 2653 	jr	NZ, 00116$
                                   2654 ;setupPair	HL
      000A92 21r09r02              2655 	ld	hl, #_turret_been_hit
      000A95 CB 46                 2656 	bit	0, (hl)
      000A97 20 36                 2657 	jr	NZ, 00116$
                                   2658 ;main.c:335: NR41_REG = 0x07;  
      000A99 3E 07                 2659 	ld	a, #0x07
      000A9B E0r00                 2660 	ldh	(_NR41_REG + 0), a
                                   2661 ;main.c:336: NR42_REG = 0x72; 
      000A9D 3E 72                 2662 	ld	a, #0x72
      000A9F E0r00                 2663 	ldh	(_NR42_REG + 0), a
                                   2664 ;main.c:337: NR43_REG = 0x21;  
      000AA1 3E 21                 2665 	ld	a, #0x21
      000AA3 E0r00                 2666 	ldh	(_NR43_REG + 0), a
                                   2667 ;main.c:338: NR44_REG = 0xC0;  
      000AA5 3E C0                 2668 	ld	a, #0xc0
      000AA7 E0r00                 2669 	ldh	(_NR44_REG + 0), a
                                   2670 ;main.c:340: been_pressed = true;
                                   2671 ;setupPair	HL
      000AA9 21r31r02              2672 	ld	hl, #_been_pressed
      000AAC 36 01                 2673 	ld	(hl), #0x01
                                   2674 ;main.c:341: shot_fired = true;               
                                   2675 ;setupPair	HL
      000AAE 21r04r02              2676 	ld	hl, #_shot_fired
      000AB1 36 01                 2677 	ld	(hl), #0x01
                                   2678 ;main.c:342: sx=turret_x;
                                   2679 ;setupPair	HL
      000AB3 FAr00r02              2680 	ld	a, (#_turret_x)
                                   2681 ;setupPair	HL
      000AB6 EAr05r02              2682 	ld	(#_sx),a
                                   2683 ;setupPair	HL
      000AB9 FAr01r02              2684 	ld	a, (#_turret_x + 1)
                                   2685 ;setupPair	HL
      000ABC EAr06r02              2686 	ld	(#_sx + 1),a
                                   2687 ;main.c:343: sy=turret_y + 6;
                                   2688 ;setupPair	HL
      000ABF FAr02r02              2689 	ld	a, (#_turret_y)
      000AC2 C6 06                 2690 	add	a, #0x06
                                   2691 ;setupPair	HL
      000AC4 EAr07r02              2692 	ld	(#_sy),a
                                   2693 ;setupPair	HL
      000AC7 FAr03r02              2694 	ld	a, (#_turret_y + 1)
      000ACA CE 00                 2695 	adc	a, #0x00
                                   2696 ;setupPair	HL
      000ACC EAr08r02              2697 	ld	(#_sy + 1),a
      000ACF                       2698 00116$:
                                   2699 ;main.c:345: if(!(joypad() & J_A)) {
      000ACF CDr00r00              2700 	call	_joypad
      000AD2 CB 63                 2701 	bit	4, e
      000AD4 20 05                 2702 	jr	NZ, 00121$
                                   2703 ;main.c:346: been_pressed = false; // fixes autofire, also with line below...
                                   2704 ;setupPair	HL
      000AD6 21r31r02              2705 	ld	hl, #_been_pressed
      000AD9 36 00                 2706 	ld	(hl), #0x00
      000ADB                       2707 00121$:
                                   2708 ;main.c:351: if (shot_fired) {
                                   2709 ;setupPair	HL
      000ADB 21r04r02              2710 	ld	hl, #_shot_fired
      000ADE CB 46                 2711 	bit	0, (hl)
      000AE0 28 40                 2712 	jr	Z, 00127$
                                   2713 ;main.c:352: sy -= 3;             
                                   2714 ;setupPair	HL
      000AE2 21r07r02              2715 	ld	hl, #_sy
      000AE5 7E                    2716 	ld	a, (hl)
      000AE6 C6 FD                 2717 	add	a, #0xfd
                                   2718 ;setupPair	HL
                                   2719 ;setupPair	HL
      000AE8 22                    2720 	ld	(hl+), a
      000AE9 7E                    2721 	ld	a, (hl)
      000AEA CE FF                 2722 	adc	a, #0xff
                                   2723 ;setupPair	HL
                                   2724 ;main.c:354: if (sy < 41) {                    
                                   2725 ;setupPair	HL
      000AEC 32                    2726 	ld	(hl-), a
      000AED 2A                    2727 	ld	a, (hl+)
      000AEE D6 29                 2728 	sub	a, #0x29
      000AF0 7E                    2729 	ld	a, (hl)
      000AF1 DE 00                 2730 	sbc	a, #0x00
      000AF3 56                    2731 	ld	d, (hl)
      000AF4 3E 00                 2732 	ld	a, #0x00
      000AF6 CB 7F                 2733 	bit	7,a
      000AF8 28 07                 2734 	jr	Z, 00353$
      000AFA CB 7A                 2735 	bit	7, d
      000AFC 20 08                 2736 	jr	NZ, 00354$
      000AFE BF                    2737 	cp	a, a
      000AFF 18 05                 2738 	jr	00354$
      000B01                       2739 00353$:
      000B01 CB 7A                 2740 	bit	7, d
      000B03 28 01                 2741 	jr	Z, 00354$
      000B05 37                    2742 	scf
      000B06                       2743 00354$:
      000B06 30 1A                 2744 	jr	NC, 00127$
                                   2745 ;main.c:355: if(!(been_pressed)) { // ...here!
                                   2746 ;setupPair	HL
      000B08 21r31r02              2747 	ld	hl, #_been_pressed
      000B0B CB 46                 2748 	bit	0, (hl)
      000B0D 20 05                 2749 	jr	NZ, 00123$
                                   2750 ;main.c:356: shot_fired = false;
                                   2751 ;setupPair	HL
      000B0F 21r04r02              2752 	ld	hl, #_shot_fired
      000B12 36 00                 2753 	ld	(hl), #0x00
      000B14                       2754 00123$:
                                   2755 ;main.c:358: sx = 165;
                                   2756 ;setupPair	HL
      000B14 21r05r02              2757 	ld	hl, #_sx
                                   2758 ;setupPair	HL
      000B17 3E A5                 2759 	ld	a, #0xa5
      000B19 22                    2760 	ld	(hl+), a
      000B1A AF                    2761 	xor	a, a
      000B1B 77                    2762 	ld	(hl), a
                                   2763 ;main.c:359: sy = 0;
      000B1C AF                    2764 	xor	a, a
                                   2765 ;setupPair	HL
      000B1D 21r07r02              2766 	ld	hl, #_sy
                                   2767 ;setupPair	HL
      000B20 22                    2768 	ld	(hl+), a
      000B21 77                    2769 	ld	(hl), a
      000B22                       2770 00127$:
                                   2771 ;main.c:366: ) {
                                   2772 ;setupPair	HL
      000B22 21r1Fr02              2773 	ld	hl, #_inv_shot_y
      000B25 3E 83                 2774 	ld	a, #0x83
      000B27 96                    2775 	sub	a, (hl)
      000B28 23                    2776 	inc	hl
      000B29 3E 00                 2777 	ld	a, #0x00
      000B2B 9E                    2778 	sbc	a, (hl)
      000B2C 3E 00                 2779 	ld	a, #0x00
      000B2E 57                    2780 	ld	d, a
      000B2F CB 7E                 2781 	bit	7, (hl)
      000B31 28 07                 2782 	jr	Z, 00355$
      000B33 CB 7A                 2783 	bit	7, d
      000B35 20 08                 2784 	jr	NZ, 00356$
      000B37 BF                    2785 	cp	a, a
      000B38 18 05                 2786 	jr	00356$
      000B3A                       2787 00355$:
      000B3A CB 7A                 2788 	bit	7, d
      000B3C 28 01                 2789 	jr	Z, 00356$
      000B3E 37                    2790 	scf
      000B3F                       2791 00356$:
      000B3F 30 25                 2792 	jr	NC, 00129$
                                   2793 ;main.c:367: inv_fired = false;
                                   2794 ;setupPair	HL
      000B41 21r23r02              2795 	ld	hl, #_inv_fired
      000B44 36 00                 2796 	ld	(hl), #0x00
                                   2797 ;main.c:368: inv_shot_x = invader_x;
                                   2798 ;setupPair	HL
      000B46 FAr11r02              2799 	ld	a, (#_invader_x)
                                   2800 ;setupPair	HL
      000B49 EAr1Dr02              2801 	ld	(#_inv_shot_x),a
                                   2802 ;setupPair	HL
      000B4C FAr12r02              2803 	ld	a, (#_invader_x + 1)
                                   2804 ;setupPair	HL
      000B4F EAr1Er02              2805 	ld	(#_inv_shot_x + 1),a
                                   2806 ;main.c:369: inv_shot_y = invader_y;
                                   2807 ;setupPair	HL
      000B52 FAr13r02              2808 	ld	a, (#_invader_y)
                                   2809 ;setupPair	HL
      000B55 EAr1Fr02              2810 	ld	(#_inv_shot_y),a
                                   2811 ;setupPair	HL
      000B58 FAr14r02              2812 	ld	a, (#_invader_y + 1)
                                   2813 ;setupPair	HL
      000B5B EAr20r02              2814 	ld	(#_inv_shot_y + 1),a
                                   2815 ;main.c:370: inv_fire_pause = 90;
                                   2816 ;setupPair	HL
      000B5E 21r21r02              2817 	ld	hl, #_inv_fire_pause
                                   2818 ;setupPair	HL
      000B61 3E 5A                 2819 	ld	a, #0x5a
      000B63 22                    2820 	ld	(hl+), a
      000B64 AF                    2821 	xor	a, a
      000B65 77                    2822 	ld	(hl), a
      000B66                       2823 00129$:
                                   2824 ;main.c:375: if ((sx + 6 >= invader_x) && (sx + 6 <= invader_x + 10) && (sy + 4 <= invader_y + 8)) {
                                   2825 ;setupPair	HL
      000B66 21r05r02              2826 	ld	hl, #_sx
                                   2827 ;setupPair	HL
      000B69 2A                    2828 	ld	a, (hl+)
      000B6A C6 06                 2829 	add	a, #0x06
      000B6C 4F                    2830 	ld	c, a
      000B6D 7E                    2831 	ld	a, (hl)
      000B6E CE 00                 2832 	adc	a, #0x00
      000B70 47                    2833 	ld	b, a
                                   2834 ;setupPair	HL
      000B71 21r11r02              2835 	ld	hl, #_invader_x
      000B74 79                    2836 	ld	a, c
      000B75 96                    2837 	sub	a, (hl)
      000B76 23                    2838 	inc	hl
      000B77 78                    2839 	ld	a, b
      000B78 9E                    2840 	sbc	a, (hl)
      000B79 78                    2841 	ld	a, b
      000B7A 57                    2842 	ld	d, a
      000B7B CB 7E                 2843 	bit	7, (hl)
      000B7D 28 07                 2844 	jr	Z, 00357$
      000B7F CB 7A                 2845 	bit	7, d
      000B81 20 08                 2846 	jr	NZ, 00358$
      000B83 BF                    2847 	cp	a, a
      000B84 18 05                 2848 	jr	00358$
      000B86                       2849 00357$:
      000B86 CB 7A                 2850 	bit	7, d
      000B88 28 01                 2851 	jr	Z, 00358$
      000B8A 37                    2852 	scf
      000B8B                       2853 00358$:
      000B8B 38 77                 2854 	jr	C, 00131$
                                   2855 ;setupPair	HL
                                   2856 ;setupPair	HL
      000B8D 21r11r02              2857 	ld	hl, #_invader_x
                                   2858 ;setupPair	HL
      000B90 2A                    2859 	ld	a, (hl+)
      000B91 5F                    2860 	ld	e, a
      000B92 56                    2861 	ld	d, (hl)
      000B93 21 0A 00              2862 	ld	hl, #0x000a
      000B96 19                    2863 	add	hl, de
      000B97 33                    2864 	inc	sp
      000B98 33                    2865 	inc	sp
      000B99 E5                    2866 	push	hl
      000B9A F8 00                 2867 	ldhl	sp,	#0
      000B9C 2A                    2868 	ld	a, (hl+)
      000B9D 91                    2869 	sub	a, c
      000B9E 7E                    2870 	ld	a, (hl)
      000B9F 98                    2871 	sbc	a, b
      000BA0 56                    2872 	ld	d, (hl)
      000BA1 78                    2873 	ld	a, b
      000BA2 CB 7F                 2874 	bit	7,a
      000BA4 28 07                 2875 	jr	Z, 00359$
      000BA6 CB 7A                 2876 	bit	7, d
      000BA8 20 08                 2877 	jr	NZ, 00360$
      000BAA BF                    2878 	cp	a, a
      000BAB 18 05                 2879 	jr	00360$
      000BAD                       2880 00359$:
      000BAD CB 7A                 2881 	bit	7, d
      000BAF 28 01                 2882 	jr	Z, 00360$
      000BB1 37                    2883 	scf
      000BB2                       2884 00360$:
      000BB2 38 50                 2885 	jr	C, 00131$
                                   2886 ;setupPair	HL
      000BB4 21r07r02              2887 	ld	hl, #_sy
                                   2888 ;setupPair	HL
      000BB7 2A                    2889 	ld	a, (hl+)
      000BB8 C6 04                 2890 	add	a, #0x04
      000BBA 4F                    2891 	ld	c, a
      000BBB 7E                    2892 	ld	a, (hl)
      000BBC CE 00                 2893 	adc	a, #0x00
      000BBE 47                    2894 	ld	b, a
                                   2895 ;setupPair	HL
                                   2896 ;setupPair	HL
      000BBF 21r13r02              2897 	ld	hl, #_invader_y
                                   2898 ;setupPair	HL
      000BC2 2A                    2899 	ld	a, (hl+)
      000BC3 5F                    2900 	ld	e, a
      000BC4 56                    2901 	ld	d, (hl)
      000BC5 21 08 00              2902 	ld	hl, #0x0008
      000BC8 19                    2903 	add	hl, de
      000BC9 33                    2904 	inc	sp
      000BCA 33                    2905 	inc	sp
      000BCB E5                    2906 	push	hl
      000BCC F8 00                 2907 	ldhl	sp,	#0
      000BCE 2A                    2908 	ld	a, (hl+)
      000BCF 91                    2909 	sub	a, c
      000BD0 7E                    2910 	ld	a, (hl)
      000BD1 98                    2911 	sbc	a, b
      000BD2 56                    2912 	ld	d, (hl)
      000BD3 78                    2913 	ld	a, b
      000BD4 CB 7F                 2914 	bit	7,a
      000BD6 28 07                 2915 	jr	Z, 00361$
      000BD8 CB 7A                 2916 	bit	7, d
      000BDA 20 08                 2917 	jr	NZ, 00362$
      000BDC BF                    2918 	cp	a, a
      000BDD 18 05                 2919 	jr	00362$
      000BDF                       2920 00361$:
      000BDF CB 7A                 2921 	bit	7, d
      000BE1 28 01                 2922 	jr	Z, 00362$
      000BE3 37                    2923 	scf
      000BE4                       2924 00362$:
      000BE4 38 1E                 2925 	jr	C, 00131$
                                   2926 ;main.c:376: sx = 165;
                                   2927 ;setupPair	HL
      000BE6 21r05r02              2928 	ld	hl, #_sx
                                   2929 ;setupPair	HL
      000BE9 3E A5                 2930 	ld	a, #0xa5
      000BEB 22                    2931 	ld	(hl+), a
      000BEC AF                    2932 	xor	a, a
      000BED 77                    2933 	ld	(hl), a
                                   2934 ;main.c:377: sy = 0;
      000BEE AF                    2935 	xor	a, a
                                   2936 ;setupPair	HL
      000BEF 21r07r02              2937 	ld	hl, #_sy
                                   2938 ;setupPair	HL
      000BF2 22                    2939 	ld	(hl+), a
      000BF3 77                    2940 	ld	(hl), a
                                   2941 ;main.c:378: been_hit = true;
                                   2942 ;setupPair	HL
      000BF4 21r24r02              2943 	ld	hl, #_been_hit
      000BF7 36 01                 2944 	ld	(hl), #0x01
                                   2945 ;main.c:379: score += 10; 
                                   2946 ;setupPair	HL
      000BF9 21r2Cr02              2947 	ld	hl, #_score
      000BFC 7E                    2948 	ld	a, (hl)
      000BFD C6 0A                 2949 	add	a, #0x0a
                                   2950 ;setupPair	HL
                                   2951 ;setupPair	HL
      000BFF 22                    2952 	ld	(hl+), a
      000C00 7E                    2953 	ld	a, (hl)
      000C01 CE 00                 2954 	adc	a, #0x00
                                   2955 ;setupPair	HL
      000C03 77                    2956 	ld	(hl), a
      000C04                       2957 00131$:
                                   2958 ;main.c:384: if ((inv_shot_x + 6) >= (turret_x) && (inv_shot_x + 4) <= (turret_x + 12) && (inv_shot_y + 6) >= (turret_y + 9)) {
                                   2959 ;setupPair	HL
      000C04 21r1Dr02              2960 	ld	hl, #_inv_shot_x
                                   2961 ;setupPair	HL
      000C07 2A                    2962 	ld	a, (hl+)
      000C08 C6 06                 2963 	add	a, #0x06
      000C0A 4F                    2964 	ld	c, a
      000C0B 7E                    2965 	ld	a, (hl)
      000C0C CE 00                 2966 	adc	a, #0x00
      000C0E 47                    2967 	ld	b, a
                                   2968 ;setupPair	HL
      000C0F 21r00r02              2969 	ld	hl, #_turret_x
      000C12 79                    2970 	ld	a, c
      000C13 96                    2971 	sub	a, (hl)
      000C14 23                    2972 	inc	hl
      000C15 78                    2973 	ld	a, b
      000C16 9E                    2974 	sbc	a, (hl)
      000C17 78                    2975 	ld	a, b
      000C18 57                    2976 	ld	d, a
      000C19 CB 7E                 2977 	bit	7, (hl)
      000C1B 28 07                 2978 	jr	Z, 00363$
      000C1D CB 7A                 2979 	bit	7, d
      000C1F 20 08                 2980 	jr	NZ, 00364$
      000C21 BF                    2981 	cp	a, a
      000C22 18 05                 2982 	jr	00364$
      000C24                       2983 00363$:
      000C24 CB 7A                 2984 	bit	7, d
      000C26 28 01                 2985 	jr	Z, 00364$
      000C28 37                    2986 	scf
      000C29                       2987 00364$:
      000C29 DArC0r0C              2988 	jp	C, 00139$
                                   2989 ;setupPair	HL
      000C2C 21r1Dr02              2990 	ld	hl, #_inv_shot_x
                                   2991 ;setupPair	HL
      000C2F 2A                    2992 	ld	a, (hl+)
      000C30 C6 04                 2993 	add	a, #0x04
      000C32 4F                    2994 	ld	c, a
      000C33 7E                    2995 	ld	a, (hl)
      000C34 CE 00                 2996 	adc	a, #0x00
      000C36 47                    2997 	ld	b, a
                                   2998 ;setupPair	HL
                                   2999 ;setupPair	HL
      000C37 21r00r02              3000 	ld	hl, #_turret_x
                                   3001 ;setupPair	HL
      000C3A 2A                    3002 	ld	a, (hl+)
      000C3B 5F                    3003 	ld	e, a
      000C3C 56                    3004 	ld	d, (hl)
      000C3D 21 0C 00              3005 	ld	hl, #0x000c
      000C40 19                    3006 	add	hl, de
      000C41 33                    3007 	inc	sp
      000C42 33                    3008 	inc	sp
      000C43 E5                    3009 	push	hl
      000C44 F8 00                 3010 	ldhl	sp,	#0
      000C46 2A                    3011 	ld	a, (hl+)
      000C47 91                    3012 	sub	a, c
      000C48 7E                    3013 	ld	a, (hl)
      000C49 98                    3014 	sbc	a, b
      000C4A 56                    3015 	ld	d, (hl)
      000C4B 78                    3016 	ld	a, b
      000C4C CB 7F                 3017 	bit	7,a
      000C4E 28 07                 3018 	jr	Z, 00365$
      000C50 CB 7A                 3019 	bit	7, d
      000C52 20 08                 3020 	jr	NZ, 00366$
      000C54 BF                    3021 	cp	a, a
      000C55 18 05                 3022 	jr	00366$
      000C57                       3023 00365$:
      000C57 CB 7A                 3024 	bit	7, d
      000C59 28 01                 3025 	jr	Z, 00366$
      000C5B 37                    3026 	scf
      000C5C                       3027 00366$:
      000C5C 38 62                 3028 	jr	C, 00139$
                                   3029 ;setupPair	HL
                                   3030 ;setupPair	HL
      000C5E 21r1Fr02              3031 	ld	hl, #_inv_shot_y
                                   3032 ;setupPair	HL
      000C61 2A                    3033 	ld	a, (hl+)
      000C62 5F                    3034 	ld	e, a
      000C63 56                    3035 	ld	d, (hl)
      000C64 21 06 00              3036 	ld	hl, #0x0006
      000C67 19                    3037 	add	hl, de
      000C68 33                    3038 	inc	sp
      000C69 33                    3039 	inc	sp
      000C6A E5                    3040 	push	hl
                                   3041 ;setupPair	HL
      000C6B 21r02r02              3042 	ld	hl, #_turret_y
                                   3043 ;setupPair	HL
      000C6E 2A                    3044 	ld	a, (hl+)
      000C6F C6 09                 3045 	add	a, #0x09
      000C71 4F                    3046 	ld	c, a
      000C72 7E                    3047 	ld	a, (hl)
      000C73 CE 00                 3048 	adc	a, #0x00
      000C75 47                    3049 	ld	b, a
      000C76 F8 00                 3050 	ldhl	sp,	#0
      000C78 2A                    3051 	ld	a, (hl+)
      000C79 91                    3052 	sub	a, c
      000C7A 7E                    3053 	ld	a, (hl)
      000C7B 98                    3054 	sbc	a, b
      000C7C 56                    3055 	ld	d, (hl)
      000C7D 78                    3056 	ld	a, b
      000C7E CB 7F                 3057 	bit	7,a
      000C80 28 07                 3058 	jr	Z, 00367$
      000C82 CB 7A                 3059 	bit	7, d
      000C84 20 08                 3060 	jr	NZ, 00368$
      000C86 BF                    3061 	cp	a, a
      000C87 18 05                 3062 	jr	00368$
      000C89                       3063 00367$:
      000C89 CB 7A                 3064 	bit	7, d
      000C8B 28 01                 3065 	jr	Z, 00368$
      000C8D 37                    3066 	scf
      000C8E                       3067 00368$:
      000C8E 38 30                 3068 	jr	C, 00139$
                                   3069 ;main.c:385: if (!(turret_been_hit)) {
                                   3070 ;setupPair	HL
      000C90 21r09r02              3071 	ld	hl, #_turret_been_hit
      000C93 CB 46                 3072 	bit	0, (hl)
      000C95 20 29                 3073 	jr	NZ, 00139$
                                   3074 ;main.c:386: lives -= 1;
                                   3075 ;setupPair	HL
                                   3076 ;setupPair	HL
      000C97 21r2Er02              3077 	ld	hl, #_lives
                                   3078 ;setupPair	HL
      000C9A 2A                    3079 	ld	a, (hl+)
      000C9B 5F                    3080 	ld	e, a
                                   3081 ;setupPair	HL
      000C9C 3A                    3082 	ld	a, (hl-)
      000C9D 57                    3083 	ld	d, a
      000C9E 1B                    3084 	dec	de
                                   3085 ;setupPair	HL
      000C9F 7B                    3086 	ld	a, e
      000CA0 22                    3087 	ld	(hl+), a
      000CA1 72                    3088 	ld	(hl), d
                                   3089 ;main.c:388: if (lives == 0) {  
                                   3090 ;setupPair	HL
                                   3091 ;setupPair	HL
      000CA2 3A                    3092 	ld	a, (hl-)
      000CA3 B6                    3093 	or	a, (hl)
      000CA4 20 15                 3094 	jr	NZ, 00135$
                                   3095 ;main.c:390: NR41_REG = 0x09;  
      000CA6 3E 09                 3096 	ld	a, #0x09
      000CA8 E0r00                 3097 	ldh	(_NR41_REG + 0), a
                                   3098 ;main.c:391: NR42_REG = 0xF1; 
      000CAA 3E F1                 3099 	ld	a, #0xf1
      000CAC E0r00                 3100 	ldh	(_NR42_REG + 0), a
                                   3101 ;main.c:392: NR43_REG = 0x81;  
      000CAE 3E 81                 3102 	ld	a, #0x81
      000CB0 E0r00                 3103 	ldh	(_NR43_REG + 0), a
                                   3104 ;main.c:393: NR44_REG = 0xC0;  
      000CB2 3E C0                 3105 	ld	a, #0xc0
      000CB4 E0r00                 3106 	ldh	(_NR44_REG + 0), a
                                   3107 ;main.c:395: game_over = true;                                                  
                                   3108 ;setupPair	HL
      000CB6 21r30r02              3109 	ld	hl, #_game_over
      000CB9 36 01                 3110 	ld	(hl), #0x01
      000CBB                       3111 00135$:
                                   3112 ;main.c:397: turret_been_hit = true;            
                                   3113 ;setupPair	HL
      000CBB 21r09r02              3114 	ld	hl, #_turret_been_hit
      000CBE 36 01                 3115 	ld	(hl), #0x01
      000CC0                       3116 00139$:
                                   3117 ;main.c:404: if (inv_fired) {
                                   3118 ;setupPair	HL
      000CC0 21r23r02              3119 	ld	hl, #_inv_fired
      000CC3 CB 46                 3120 	bit	0, (hl)
      000CC5 28 10                 3121 	jr	Z, 00143$
                                   3122 ;main.c:406: move_sprite(14, inv_shot_x, inv_shot_y);    // draw sprite 14 to these coordinates                  
                                   3123 ;setupPair	HL
      000CC7 21r1Fr02              3124 	ld	hl, #_inv_shot_y
      000CCA 46                    3125 	ld	b, (hl)
                                   3126 ;setupPair	HL
      000CCB 21r1Dr02              3127 	ld	hl, #_inv_shot_x
      000CCE 4E                    3128 	ld	c, (hl)
                                   3129 ;c:/gbdk/include/gb/gb.h:1247: OAM_item_t * itm = &shadow_OAM[nb];
      000CCF 21r38r00              3130 	ld	hl, #(_shadow_OAM + 56)
                                   3131 ;c:/gbdk/include/gb/gb.h:1248: itm->y=y, itm->x=x;
      000CD2 78                    3132 	ld	a, b
      000CD3 22                    3133 	ld	(hl+), a
      000CD4 71                    3134 	ld	(hl), c
                                   3135 ;main.c:406: move_sprite(14, inv_shot_x, inv_shot_y);    // draw sprite 14 to these coordinates                  
      000CD5 18 08                 3136 	jr	00144$
      000CD7                       3137 00143$:
                                   3138 ;c:/gbdk/include/gb/gb.h:1247: OAM_item_t * itm = &shadow_OAM[nb];
      000CD7 21r38r00              3139 	ld	hl, #(_shadow_OAM + 56)
                                   3140 ;c:/gbdk/include/gb/gb.h:1248: itm->y=y, itm->x=x;
      000CDA 36 90                 3141 	ld	(hl), #0x90
      000CDC 23                    3142 	inc	hl
      000CDD 36 A5                 3143 	ld	(hl), #0xa5
                                   3144 ;main.c:410: move_sprite(14, 165, 144);                  // draw sprite 14 to these coordinates                 
      000CDF                       3145 00144$:
                                   3146 ;main.c:414: if (!(turret_been_hit)) {
                                   3147 ;setupPair	HL
      000CDF 21r09r02              3148 	ld	hl, #_turret_been_hit
      000CE2 CB 46                 3149 	bit	0, (hl)
      000CE4 20 0C                 3150 	jr	NZ, 00151$
                                   3151 ;c:/gbdk/include/gb/gb.h:1174: shadow_OAM[nb].tile=tile;
      000CE6 21r02r00              3152 	ld	hl, #(_shadow_OAM + 2)
      000CE9 36 00                 3153 	ld	(hl), #0x00
      000CEB 21r06r00              3154 	ld	hl, #(_shadow_OAM + 6)
      000CEE 36 02                 3155 	ld	(hl), #0x02
                                   3156 ;main.c:416: set_sprite_tile(1, 2);            
      000CF0 18 27                 3157 	jr	00152$
      000CF2                       3158 00151$:
                                   3159 ;main.c:421: if (turret_exp_frame == 1) {               
                                   3160 ;setupPair	HL
      000CF2 21r0Cr02              3161 	ld	hl, #_turret_exp_frame
                                   3162 ;setupPair	HL
      000CF5 2A                    3163 	ld	a, (hl+)
      000CF6 3D                    3164 	dec	a
      000CF7 B6                    3165 	or	a, (hl)
      000CF8 20 0C                 3166 	jr	NZ, 00148$
                                   3167 ;c:/gbdk/include/gb/gb.h:1174: shadow_OAM[nb].tile=tile;
      000CFA 21r02r00              3168 	ld	hl, #(_shadow_OAM + 2)
      000CFD 36 04                 3169 	ld	(hl), #0x04
      000CFF 21r06r00              3170 	ld	hl, #(_shadow_OAM + 6)
      000D02 36 06                 3171 	ld	(hl), #0x06
                                   3172 ;main.c:423: set_sprite_tile(1, 6); 
      000D04 18 13                 3173 	jr	00152$
      000D06                       3174 00148$:
                                   3175 ;main.c:426: else if (turret_exp_frame == 2) {                
                                   3176 ;setupPair	HL
      000D06 21r0Cr02              3177 	ld	hl, #_turret_exp_frame
                                   3178 ;setupPair	HL
      000D09 2A                    3179 	ld	a, (hl+)
      000D0A D6 02                 3180 	sub	a, #0x02
      000D0C B6                    3181 	or	a, (hl)
      000D0D 20 0A                 3182 	jr	NZ, 00152$
                                   3183 ;c:/gbdk/include/gb/gb.h:1174: shadow_OAM[nb].tile=tile;
      000D0F 21r02r00              3184 	ld	hl, #(_shadow_OAM + 2)
      000D12 36 08                 3185 	ld	(hl), #0x08
      000D14 21r06r00              3186 	ld	hl, #(_shadow_OAM + 6)
      000D17 36 0A                 3187 	ld	(hl), #0x0a
                                   3188 ;main.c:428: set_sprite_tile(1, 10); 
      000D19                       3189 00152$:
                                   3190 ;main.c:431: move_sprite(0, turret_x, turret_y);     // draw sprite 0 to these coordinates
                                   3191 ;setupPair	HL
      000D19 21r02r02              3192 	ld	hl, #_turret_y
      000D1C 4E                    3193 	ld	c, (hl)
                                   3194 ;setupPair	HL
      000D1D 21r00r02              3195 	ld	hl, #_turret_x
      000D20 46                    3196 	ld	b, (hl)
                                   3197 ;c:/gbdk/include/gb/gb.h:1247: OAM_item_t * itm = &shadow_OAM[nb];
      000D21 21r00r00              3198 	ld	hl, #_shadow_OAM
                                   3199 ;c:/gbdk/include/gb/gb.h:1248: itm->y=y, itm->x=x;
      000D24 79                    3200 	ld	a, c
      000D25 22                    3201 	ld	(hl+), a
      000D26 70                    3202 	ld	(hl), b
                                   3203 ;main.c:432: move_sprite(1, turret_x + 8, turret_y); // draw sprite 1 to these coordinates
                                   3204 ;setupPair	HL
      000D27 21r02r02              3205 	ld	hl, #_turret_y
      000D2A 4E                    3206 	ld	c, (hl)
                                   3207 ;setupPair	HL
      000D2B FAr00r02              3208 	ld	a, (#_turret_x)
      000D2E C6 08                 3209 	add	a, #0x08
      000D30 47                    3210 	ld	b, a
                                   3211 ;c:/gbdk/include/gb/gb.h:1247: OAM_item_t * itm = &shadow_OAM[nb];
      000D31 21r04r00              3212 	ld	hl, #(_shadow_OAM + 4)
                                   3213 ;c:/gbdk/include/gb/gb.h:1248: itm->y=y, itm->x=x;
      000D34 79                    3214 	ld	a, c
      000D35 22                    3215 	ld	(hl+), a
      000D36 70                    3216 	ld	(hl), b
                                   3217 ;main.c:435: move_sprite(6, sx, sy); // draw sprite 6 to these coordinates
                                   3218 ;setupPair	HL
      000D37 21r07r02              3219 	ld	hl, #_sy
      000D3A 4E                    3220 	ld	c, (hl)
                                   3221 ;setupPair	HL
      000D3B 21r05r02              3222 	ld	hl, #_sx
      000D3E 46                    3223 	ld	b, (hl)
                                   3224 ;c:/gbdk/include/gb/gb.h:1247: OAM_item_t * itm = &shadow_OAM[nb];
      000D3F 21r18r00              3225 	ld	hl, #(_shadow_OAM + 24)
                                   3226 ;c:/gbdk/include/gb/gb.h:1248: itm->y=y, itm->x=x;
      000D42 79                    3227 	ld	a, c
      000D43 22                    3228 	ld	(hl+), a
      000D44 70                    3229 	ld	(hl), b
                                   3230 ;main.c:439: gotoxy(1, 1);        
      000D45 21 01 01              3231 	ld	hl, #0x101
      000D48 E5                    3232 	push	hl
      000D49 CDr00r00              3233 	call	_gotoxy
      000D4C E1                    3234 	pop	hl
                                   3235 ;main.c:440: printf("SCORE %d ", score);
                                   3236 ;setupPair	HL
      000D4D 21r2Cr02              3237 	ld	hl, #_score
                                   3238 ;setupPair	HL
      000D50 2A                    3239 	ld	a, (hl+)
      000D51 5F                    3240 	ld	e, a
      000D52 56                    3241 	ld	d, (hl)
      000D53 D5                    3242 	push	de
      000D54 11r7Er0D              3243 	ld	de, #___str_0
      000D57 D5                    3244 	push	de
      000D58 CDr00r00              3245 	call	_printf
      000D5B E8 04                 3246 	add	sp, #4
                                   3247 ;main.c:441: gotoxy(12, 1);
      000D5D 21 0C 01              3248 	ld	hl, #0x10c
      000D60 E5                    3249 	push	hl
      000D61 CDr00r00              3250 	call	_gotoxy
      000D64 E1                    3251 	pop	hl
                                   3252 ;main.c:442: printf("LIVES %d ", lives);
                                   3253 ;setupPair	HL
      000D65 21r2Er02              3254 	ld	hl, #_lives
                                   3255 ;setupPair	HL
      000D68 2A                    3256 	ld	a, (hl+)
      000D69 5F                    3257 	ld	e, a
      000D6A 56                    3258 	ld	d, (hl)
      000D6B D5                    3259 	push	de
      000D6C 11r88r0D              3260 	ld	de, #___str_1
      000D6F D5                    3261 	push	de
      000D70 CDr00r00              3262 	call	_printf
      000D73 E8 04                 3263 	add	sp, #4
                                   3264 ;main.c:447: wait_vbl_done(); // helps keep framerate
      000D75 CDr00r00              3265 	call	_wait_vbl_done
      000D78 C3r41r09              3266 	jp	00156$
                                   3267 ;main.c:450: }
      000D7B 33                    3268 	inc	sp
      000D7C 33                    3269 	inc	sp
      000D7D C9                    3270 	ret
      000D7E                       3271 ___str_0:
      000D7E 53 43 4F 52 45 20 25  3272 	.ascii "SCORE %d "
             64 20
      000D87 00                    3273 	.db 0x00
      000D88                       3274 ___str_1:
      000D88 4C 49 56 45 53 20 25  3275 	.ascii "LIVES %d "
             64 20
      000D91 00                    3276 	.db 0x00
      000D92                       3277 ___str_2:
      000D92 47 41 4D 45 20 20 4F  3278 	.ascii "GAME  OVER"
             56 45 52
      000D9C 00                    3279 	.db 0x00
      000D9D                       3280 ___str_3:
      000D9D 20 20 20 20 20 20 20  3281 	.ascii "          "
             20 20 20
      000DA7 00                    3282 	.db 0x00
                                   3283 	.area _CODE
                                   3284 	.area _INITIALIZER
      000000                       3285 __xinit__sprites_turret:
      000000 00                    3286 	.db #0x00	; 0
      000001 00                    3287 	.db #0x00	; 0
      000002 00                    3288 	.db #0x00	; 0
      000003 00                    3289 	.db #0x00	; 0
      000004 00                    3290 	.db #0x00	; 0
      000005 00                    3291 	.db #0x00	; 0
      000006 00                    3292 	.db #0x00	; 0
      000007 00                    3293 	.db #0x00	; 0
      000008 00                    3294 	.db #0x00	; 0
      000009 00                    3295 	.db #0x00	; 0
      00000A 00                    3296 	.db #0x00	; 0
      00000B 00                    3297 	.db #0x00	; 0
      00000C 00                    3298 	.db #0x00	; 0
      00000D 00                    3299 	.db #0x00	; 0
      00000E 00                    3300 	.db #0x00	; 0
      00000F 00                    3301 	.db #0x00	; 0
      000010 02                    3302 	.db #0x02	; 2
      000011 02                    3303 	.db #0x02	; 2
      000012 07                    3304 	.db #0x07	; 7
      000013 07                    3305 	.db #0x07	; 7
      000014 07                    3306 	.db #0x07	; 7
      000015 07                    3307 	.db #0x07	; 7
      000016 7F                    3308 	.db #0x7f	; 127
      000017 7F                    3309 	.db #0x7f	; 127
      000018 FF                    3310 	.db #0xff	; 255
      000019 FF                    3311 	.db #0xff	; 255
      00001A FF                    3312 	.db #0xff	; 255
      00001B FF                    3313 	.db #0xff	; 255
      00001C FF                    3314 	.db #0xff	; 255
      00001D FF                    3315 	.db #0xff	; 255
      00001E FF                    3316 	.db #0xff	; 255
      00001F FF                    3317 	.db #0xff	; 255
      000020 00                    3318 	.db #0x00	; 0
      000021 00                    3319 	.db #0x00	; 0
      000022 00                    3320 	.db #0x00	; 0
      000023 00                    3321 	.db #0x00	; 0
      000024 00                    3322 	.db #0x00	; 0
      000025 00                    3323 	.db #0x00	; 0
      000026 00                    3324 	.db #0x00	; 0
      000027 00                    3325 	.db #0x00	; 0
      000028 00                    3326 	.db #0x00	; 0
      000029 00                    3327 	.db #0x00	; 0
      00002A 00                    3328 	.db #0x00	; 0
      00002B 00                    3329 	.db #0x00	; 0
      00002C 00                    3330 	.db #0x00	; 0
      00002D 00                    3331 	.db #0x00	; 0
      00002E 00                    3332 	.db #0x00	; 0
      00002F 00                    3333 	.db #0x00	; 0
      000030 00                    3334 	.db #0x00	; 0
      000031 00                    3335 	.db #0x00	; 0
      000032 00                    3336 	.db #0x00	; 0
      000033 00                    3337 	.db #0x00	; 0
      000034 00                    3338 	.db #0x00	; 0
      000035 00                    3339 	.db #0x00	; 0
      000036 F0                    3340 	.db #0xf0	; 240
      000037 F0                    3341 	.db #0xf0	; 240
      000038 F8                    3342 	.db #0xf8	; 248
      000039 F8                    3343 	.db #0xf8	; 248
      00003A F8                    3344 	.db #0xf8	; 248
      00003B F8                    3345 	.db #0xf8	; 248
      00003C F8                    3346 	.db #0xf8	; 248
      00003D F8                    3347 	.db #0xf8	; 248
      00003E F8                    3348 	.db #0xf8	; 248
      00003F F8                    3349 	.db #0xf8	; 248
      000040 00                    3350 	.db #0x00	; 0
      000041 00                    3351 	.db #0x00	; 0
      000042 00                    3352 	.db #0x00	; 0
      000043 00                    3353 	.db #0x00	; 0
      000044 00                    3354 	.db #0x00	; 0
      000045 00                    3355 	.db #0x00	; 0
      000046 00                    3356 	.db #0x00	; 0
      000047 00                    3357 	.db #0x00	; 0
      000048 00                    3358 	.db #0x00	; 0
      000049 00                    3359 	.db #0x00	; 0
      00004A 00                    3360 	.db #0x00	; 0
      00004B 00                    3361 	.db #0x00	; 0
      00004C 00                    3362 	.db #0x00	; 0
      00004D 00                    3363 	.db #0x00	; 0
      00004E 00                    3364 	.db #0x00	; 0
      00004F 00                    3365 	.db #0x00	; 0
      000050 04                    3366 	.db #0x04	; 4
      000051 04                    3367 	.db #0x04	; 4
      000052 00                    3368 	.db #0x00	; 0
      000053 00                    3369 	.db #0x00	; 0
      000054 05                    3370 	.db #0x05	; 5
      000055 05                    3371 	.db #0x05	; 5
      000056 24                    3372 	.db #0x24	; 36
      000057 24                    3373 	.db #0x24	; 36
      000058 03                    3374 	.db #0x03	; 3
      000059 03                    3375 	.db #0x03	; 3
      00005A 8B                    3376 	.db #0x8b	; 139
      00005B 8B                    3377 	.db #0x8b	; 139
      00005C 3F                    3378 	.db #0x3f	; 63
      00005D 3F                    3379 	.db #0x3f	; 63
      00005E 7F                    3380 	.db #0x7f	; 127
      00005F 7F                    3381 	.db #0x7f	; 127
      000060 00                    3382 	.db #0x00	; 0
      000061 00                    3383 	.db #0x00	; 0
      000062 00                    3384 	.db #0x00	; 0
      000063 00                    3385 	.db #0x00	; 0
      000064 00                    3386 	.db #0x00	; 0
      000065 00                    3387 	.db #0x00	; 0
      000066 00                    3388 	.db #0x00	; 0
      000067 00                    3389 	.db #0x00	; 0
      000068 00                    3390 	.db #0x00	; 0
      000069 00                    3391 	.db #0x00	; 0
      00006A 00                    3392 	.db #0x00	; 0
      00006B 00                    3393 	.db #0x00	; 0
      00006C 00                    3394 	.db #0x00	; 0
      00006D 00                    3395 	.db #0x00	; 0
      00006E 00                    3396 	.db #0x00	; 0
      00006F 00                    3397 	.db #0x00	; 0
      000070 00                    3398 	.db #0x00	; 0
      000071 00                    3399 	.db #0x00	; 0
      000072 20                    3400 	.db #0x20	; 32
      000073 20                    3401 	.db #0x20	; 32
      000074 40                    3402 	.db #0x40	; 64
      000075 40                    3403 	.db #0x40	; 64
      000076 00                    3404 	.db #0x00	; 0
      000077 00                    3405 	.db #0x00	; 0
      000078 60                    3406 	.db #0x60	; 96
      000079 60                    3407 	.db #0x60	; 96
      00007A 50                    3408 	.db #0x50	; 80	'P'
      00007B 50                    3409 	.db #0x50	; 80	'P'
      00007C C8                    3410 	.db #0xc8	; 200
      00007D C8                    3411 	.db #0xc8	; 200
      00007E EA                    3412 	.db #0xea	; 234
      00007F EA                    3413 	.db #0xea	; 234
      000080 00                    3414 	.db #0x00	; 0
      000081 00                    3415 	.db #0x00	; 0
      000082 00                    3416 	.db #0x00	; 0
      000083 00                    3417 	.db #0x00	; 0
      000084 00                    3418 	.db #0x00	; 0
      000085 00                    3419 	.db #0x00	; 0
      000086 00                    3420 	.db #0x00	; 0
      000087 00                    3421 	.db #0x00	; 0
      000088 00                    3422 	.db #0x00	; 0
      000089 00                    3423 	.db #0x00	; 0
      00008A 00                    3424 	.db #0x00	; 0
      00008B 00                    3425 	.db #0x00	; 0
      00008C 00                    3426 	.db #0x00	; 0
      00008D 00                    3427 	.db #0x00	; 0
      00008E 00                    3428 	.db #0x00	; 0
      00008F 00                    3429 	.db #0x00	; 0
      000090 20                    3430 	.db #0x20	; 32
      000091 20                    3431 	.db #0x20	; 32
      000092 84                    3432 	.db #0x84	; 132
      000093 84                    3433 	.db #0x84	; 132
      000094 21                    3434 	.db #0x21	; 33
      000095 21                    3435 	.db #0x21	; 33
      000096 04                    3436 	.db #0x04	; 4
      000097 04                    3437 	.db #0x04	; 4
      000098 56                    3438 	.db #0x56	; 86	'V'
      000099 56                    3439 	.db #0x56	; 86	'V'
      00009A 23                    3440 	.db #0x23	; 35
      00009B 23                    3441 	.db #0x23	; 35
      00009C 1F                    3442 	.db #0x1f	; 31
      00009D 1F                    3443 	.db #0x1f	; 31
      00009E 37                    3444 	.db #0x37	; 55	'7'
      00009F 37                    3445 	.db #0x37	; 55	'7'
      0000A0 00                    3446 	.db #0x00	; 0
      0000A1 00                    3447 	.db #0x00	; 0
      0000A2 00                    3448 	.db #0x00	; 0
      0000A3 00                    3449 	.db #0x00	; 0
      0000A4 00                    3450 	.db #0x00	; 0
      0000A5 00                    3451 	.db #0x00	; 0
      0000A6 00                    3452 	.db #0x00	; 0
      0000A7 00                    3453 	.db #0x00	; 0
      0000A8 00                    3454 	.db #0x00	; 0
      0000A9 00                    3455 	.db #0x00	; 0
      0000AA 00                    3456 	.db #0x00	; 0
      0000AB 00                    3457 	.db #0x00	; 0
      0000AC 00                    3458 	.db #0x00	; 0
      0000AD 00                    3459 	.db #0x00	; 0
      0000AE 00                    3460 	.db #0x00	; 0
      0000AF 00                    3461 	.db #0x00	; 0
      0000B0 08                    3462 	.db #0x08	; 8
      0000B1 08                    3463 	.db #0x08	; 8
      0000B2 32                    3464 	.db #0x32	; 50	'2'
      0000B3 32                    3465 	.db #0x32	; 50	'2'
      0000B4 80                    3466 	.db #0x80	; 128
      0000B5 80                    3467 	.db #0x80	; 128
      0000B6 04                    3468 	.db #0x04	; 4
      0000B7 04                    3469 	.db #0x04	; 4
      0000B8 E2                    3470 	.db #0xe2	; 226
      0000B9 E2                    3471 	.db #0xe2	; 226
      0000BA 88                    3472 	.db #0x88	; 136
      0000BB 88                    3473 	.db #0x88	; 136
      0000BC E0                    3474 	.db #0xe0	; 224
      0000BD E0                    3475 	.db #0xe0	; 224
      0000BE E4                    3476 	.db #0xe4	; 228
      0000BF E4                    3477 	.db #0xe4	; 228
      0000C0 00                    3478 	.db #0x00	; 0
      0000C1 00                    3479 	.db #0x00	; 0
      0000C2 00                    3480 	.db #0x00	; 0
      0000C3 00                    3481 	.db #0x00	; 0
      0000C4 00                    3482 	.db #0x00	; 0
      0000C5 00                    3483 	.db #0x00	; 0
      0000C6 00                    3484 	.db #0x00	; 0
      0000C7 00                    3485 	.db #0x00	; 0
      0000C8 02                    3486 	.db #0x02	; 2
      0000C9 02                    3487 	.db #0x02	; 2
      0000CA 02                    3488 	.db #0x02	; 2
      0000CB 02                    3489 	.db #0x02	; 2
      0000CC 02                    3490 	.db #0x02	; 2
      0000CD 02                    3491 	.db #0x02	; 2
      0000CE 00                    3492 	.db #0x00	; 0
      0000CF 00                    3493 	.db #0x00	; 0
      0000D0 00                    3494 	.db #0x00	; 0
      0000D1 00                    3495 	.db #0x00	; 0
      0000D2 00                    3496 	.db #0x00	; 0
      0000D3 00                    3497 	.db #0x00	; 0
      0000D4 00                    3498 	.db #0x00	; 0
      0000D5 00                    3499 	.db #0x00	; 0
      0000D6 00                    3500 	.db #0x00	; 0
      0000D7 00                    3501 	.db #0x00	; 0
      0000D8 00                    3502 	.db #0x00	; 0
      0000D9 00                    3503 	.db #0x00	; 0
      0000DA 00                    3504 	.db #0x00	; 0
      0000DB 00                    3505 	.db #0x00	; 0
      0000DC 00                    3506 	.db #0x00	; 0
      0000DD 00                    3507 	.db #0x00	; 0
      0000DE 00                    3508 	.db #0x00	; 0
      0000DF 00                    3509 	.db #0x00	; 0
      0000E0 00                    3510 	.db #0x00	; 0
      0000E1 00                    3511 	.db #0x00	; 0
      0000E2 00                    3512 	.db #0x00	; 0
      0000E3 00                    3513 	.db #0x00	; 0
      0000E4 00                    3514 	.db #0x00	; 0
      0000E5 00                    3515 	.db #0x00	; 0
      0000E6 00                    3516 	.db #0x00	; 0
      0000E7 00                    3517 	.db #0x00	; 0
      0000E8 00                    3518 	.db #0x00	; 0
      0000E9 00                    3519 	.db #0x00	; 0
      0000EA 00                    3520 	.db #0x00	; 0
      0000EB 00                    3521 	.db #0x00	; 0
      0000EC 00                    3522 	.db #0x00	; 0
      0000ED 00                    3523 	.db #0x00	; 0
      0000EE 00                    3524 	.db #0x00	; 0
      0000EF 00                    3525 	.db #0x00	; 0
      0000F0 00                    3526 	.db #0x00	; 0
      0000F1 00                    3527 	.db #0x00	; 0
      0000F2 00                    3528 	.db #0x00	; 0
      0000F3 00                    3529 	.db #0x00	; 0
      0000F4 00                    3530 	.db #0x00	; 0
      0000F5 00                    3531 	.db #0x00	; 0
      0000F6 00                    3532 	.db #0x00	; 0
      0000F7 00                    3533 	.db #0x00	; 0
      0000F8 00                    3534 	.db #0x00	; 0
      0000F9 00                    3535 	.db #0x00	; 0
      0000FA 00                    3536 	.db #0x00	; 0
      0000FB 00                    3537 	.db #0x00	; 0
      0000FC 00                    3538 	.db #0x00	; 0
      0000FD 00                    3539 	.db #0x00	; 0
      0000FE 00                    3540 	.db #0x00	; 0
      0000FF 00                    3541 	.db #0x00	; 0
      000100                       3542 __xinit__sprites_invader:
      000100 20                    3543 	.db #0x20	; 32
      000101 20                    3544 	.db #0x20	; 32
      000102 11                    3545 	.db #0x11	; 17
      000103 11                    3546 	.db #0x11	; 17
      000104 3F                    3547 	.db #0x3f	; 63
      000105 3F                    3548 	.db #0x3f	; 63
      000106 6E                    3549 	.db #0x6e	; 110	'n'
      000107 6E                    3550 	.db #0x6e	; 110	'n'
      000108 FF                    3551 	.db #0xff	; 255
      000109 FF                    3552 	.db #0xff	; 255
      00010A FF                    3553 	.db #0xff	; 255
      00010B FF                    3554 	.db #0xff	; 255
      00010C BF                    3555 	.db #0xbf	; 191
      00010D BF                    3556 	.db #0xbf	; 191
      00010E A0                    3557 	.db #0xa0	; 160
      00010F A0                    3558 	.db #0xa0	; 160
      000110 11                    3559 	.db #0x11	; 17
      000111 11                    3560 	.db #0x11	; 17
      000112 00                    3561 	.db #0x00	; 0
      000113 00                    3562 	.db #0x00	; 0
      000114 00                    3563 	.db #0x00	; 0
      000115 00                    3564 	.db #0x00	; 0
      000116 00                    3565 	.db #0x00	; 0
      000117 00                    3566 	.db #0x00	; 0
      000118 00                    3567 	.db #0x00	; 0
      000119 00                    3568 	.db #0x00	; 0
      00011A 00                    3569 	.db #0x00	; 0
      00011B 00                    3570 	.db #0x00	; 0
      00011C 00                    3571 	.db #0x00	; 0
      00011D 00                    3572 	.db #0x00	; 0
      00011E 00                    3573 	.db #0x00	; 0
      00011F 00                    3574 	.db #0x00	; 0
      000120 80                    3575 	.db #0x80	; 128
      000121 80                    3576 	.db #0x80	; 128
      000122 00                    3577 	.db #0x00	; 0
      000123 00                    3578 	.db #0x00	; 0
      000124 80                    3579 	.db #0x80	; 128
      000125 80                    3580 	.db #0x80	; 128
      000126 C0                    3581 	.db #0xc0	; 192
      000127 C0                    3582 	.db #0xc0	; 192
      000128 E0                    3583 	.db #0xe0	; 224
      000129 E0                    3584 	.db #0xe0	; 224
      00012A E0                    3585 	.db #0xe0	; 224
      00012B E0                    3586 	.db #0xe0	; 224
      00012C A0                    3587 	.db #0xa0	; 160
      00012D A0                    3588 	.db #0xa0	; 160
      00012E A0                    3589 	.db #0xa0	; 160
      00012F A0                    3590 	.db #0xa0	; 160
      000130 00                    3591 	.db #0x00	; 0
      000131 00                    3592 	.db #0x00	; 0
      000132 00                    3593 	.db #0x00	; 0
      000133 00                    3594 	.db #0x00	; 0
      000134 00                    3595 	.db #0x00	; 0
      000135 00                    3596 	.db #0x00	; 0
      000136 00                    3597 	.db #0x00	; 0
      000137 00                    3598 	.db #0x00	; 0
      000138 00                    3599 	.db #0x00	; 0
      000139 00                    3600 	.db #0x00	; 0
      00013A 00                    3601 	.db #0x00	; 0
      00013B 00                    3602 	.db #0x00	; 0
      00013C 00                    3603 	.db #0x00	; 0
      00013D 00                    3604 	.db #0x00	; 0
      00013E 00                    3605 	.db #0x00	; 0
      00013F 00                    3606 	.db #0x00	; 0
      000140 20                    3607 	.db #0x20	; 32
      000141 20                    3608 	.db #0x20	; 32
      000142 91                    3609 	.db #0x91	; 145
      000143 91                    3610 	.db #0x91	; 145
      000144 BF                    3611 	.db #0xbf	; 191
      000145 BF                    3612 	.db #0xbf	; 191
      000146 EE                    3613 	.db #0xee	; 238
      000147 EE                    3614 	.db #0xee	; 238
      000148 FF                    3615 	.db #0xff	; 255
      000149 FF                    3616 	.db #0xff	; 255
      00014A FF                    3617 	.db #0xff	; 255
      00014B FF                    3618 	.db #0xff	; 255
      00014C 7F                    3619 	.db #0x7f	; 127
      00014D 7F                    3620 	.db #0x7f	; 127
      00014E 20                    3621 	.db #0x20	; 32
      00014F 20                    3622 	.db #0x20	; 32
      000150 40                    3623 	.db #0x40	; 64
      000151 40                    3624 	.db #0x40	; 64
      000152 00                    3625 	.db #0x00	; 0
      000153 00                    3626 	.db #0x00	; 0
      000154 00                    3627 	.db #0x00	; 0
      000155 00                    3628 	.db #0x00	; 0
      000156 00                    3629 	.db #0x00	; 0
      000157 00                    3630 	.db #0x00	; 0
      000158 00                    3631 	.db #0x00	; 0
      000159 00                    3632 	.db #0x00	; 0
      00015A 00                    3633 	.db #0x00	; 0
      00015B 00                    3634 	.db #0x00	; 0
      00015C 00                    3635 	.db #0x00	; 0
      00015D 00                    3636 	.db #0x00	; 0
      00015E 00                    3637 	.db #0x00	; 0
      00015F 00                    3638 	.db #0x00	; 0
      000160 80                    3639 	.db #0x80	; 128
      000161 80                    3640 	.db #0x80	; 128
      000162 20                    3641 	.db #0x20	; 32
      000163 20                    3642 	.db #0x20	; 32
      000164 A0                    3643 	.db #0xa0	; 160
      000165 A0                    3644 	.db #0xa0	; 160
      000166 E0                    3645 	.db #0xe0	; 224
      000167 E0                    3646 	.db #0xe0	; 224
      000168 E0                    3647 	.db #0xe0	; 224
      000169 E0                    3648 	.db #0xe0	; 224
      00016A E0                    3649 	.db #0xe0	; 224
      00016B E0                    3650 	.db #0xe0	; 224
      00016C C0                    3651 	.db #0xc0	; 192
      00016D C0                    3652 	.db #0xc0	; 192
      00016E 80                    3653 	.db #0x80	; 128
      00016F 80                    3654 	.db #0x80	; 128
      000170 40                    3655 	.db #0x40	; 64
      000171 40                    3656 	.db #0x40	; 64
      000172 00                    3657 	.db #0x00	; 0
      000173 00                    3658 	.db #0x00	; 0
      000174 00                    3659 	.db #0x00	; 0
      000175 00                    3660 	.db #0x00	; 0
      000176 00                    3661 	.db #0x00	; 0
      000177 00                    3662 	.db #0x00	; 0
      000178 00                    3663 	.db #0x00	; 0
      000179 00                    3664 	.db #0x00	; 0
      00017A 00                    3665 	.db #0x00	; 0
      00017B 00                    3666 	.db #0x00	; 0
      00017C 00                    3667 	.db #0x00	; 0
      00017D 00                    3668 	.db #0x00	; 0
      00017E 00                    3669 	.db #0x00	; 0
      00017F 00                    3670 	.db #0x00	; 0
      000180 11                    3671 	.db #0x11	; 17
      000181 11                    3672 	.db #0x11	; 17
      000182 4A                    3673 	.db #0x4a	; 74	'J'
      000183 4A                    3674 	.db #0x4a	; 74	'J'
      000184 20                    3675 	.db #0x20	; 32
      000185 20                    3676 	.db #0x20	; 32
      000186 11                    3677 	.db #0x11	; 17
      000187 11                    3678 	.db #0x11	; 17
      000188 C0                    3679 	.db #0xc0	; 192
      000189 C0                    3680 	.db #0xc0	; 192
      00018A 11                    3681 	.db #0x11	; 17
      00018B 11                    3682 	.db #0x11	; 17
      00018C 20                    3683 	.db #0x20	; 32
      00018D 20                    3684 	.db #0x20	; 32
      00018E 4A                    3685 	.db #0x4a	; 74	'J'
      00018F 4A                    3686 	.db #0x4a	; 74	'J'
      000190 11                    3687 	.db #0x11	; 17
      000191 11                    3688 	.db #0x11	; 17
      000192 00                    3689 	.db #0x00	; 0
      000193 00                    3690 	.db #0x00	; 0
      000194 00                    3691 	.db #0x00	; 0
      000195 00                    3692 	.db #0x00	; 0
      000196 00                    3693 	.db #0x00	; 0
      000197 00                    3694 	.db #0x00	; 0
      000198 00                    3695 	.db #0x00	; 0
      000199 00                    3696 	.db #0x00	; 0
      00019A 00                    3697 	.db #0x00	; 0
      00019B 00                    3698 	.db #0x00	; 0
      00019C 00                    3699 	.db #0x00	; 0
      00019D 00                    3700 	.db #0x00	; 0
      00019E 00                    3701 	.db #0x00	; 0
      00019F 00                    3702 	.db #0x00	; 0
      0001A0 00                    3703 	.db #0x00	; 0
      0001A1 00                    3704 	.db #0x00	; 0
      0001A2 40                    3705 	.db #0x40	; 64
      0001A3 40                    3706 	.db #0x40	; 64
      0001A4 80                    3707 	.db #0x80	; 128
      0001A5 80                    3708 	.db #0x80	; 128
      0001A6 00                    3709 	.db #0x00	; 0
      0001A7 00                    3710 	.db #0x00	; 0
      0001A8 60                    3711 	.db #0x60	; 96
      0001A9 60                    3712 	.db #0x60	; 96
      0001AA 00                    3713 	.db #0x00	; 0
      0001AB 00                    3714 	.db #0x00	; 0
      0001AC 80                    3715 	.db #0x80	; 128
      0001AD 80                    3716 	.db #0x80	; 128
      0001AE 40                    3717 	.db #0x40	; 64
      0001AF 40                    3718 	.db #0x40	; 64
      0001B0 00                    3719 	.db #0x00	; 0
      0001B1 00                    3720 	.db #0x00	; 0
      0001B2 00                    3721 	.db #0x00	; 0
      0001B3 00                    3722 	.db #0x00	; 0
      0001B4 00                    3723 	.db #0x00	; 0
      0001B5 00                    3724 	.db #0x00	; 0
      0001B6 00                    3725 	.db #0x00	; 0
      0001B7 00                    3726 	.db #0x00	; 0
      0001B8 00                    3727 	.db #0x00	; 0
      0001B9 00                    3728 	.db #0x00	; 0
      0001BA 00                    3729 	.db #0x00	; 0
      0001BB 00                    3730 	.db #0x00	; 0
      0001BC 00                    3731 	.db #0x00	; 0
      0001BD 00                    3732 	.db #0x00	; 0
      0001BE 00                    3733 	.db #0x00	; 0
      0001BF 00                    3734 	.db #0x00	; 0
      0001C0 00                    3735 	.db #0x00	; 0
      0001C1 00                    3736 	.db #0x00	; 0
      0001C2 00                    3737 	.db #0x00	; 0
      0001C3 00                    3738 	.db #0x00	; 0
      0001C4 04                    3739 	.db #0x04	; 4
      0001C5 04                    3740 	.db #0x04	; 4
      0001C6 02                    3741 	.db #0x02	; 2
      0001C7 02                    3742 	.db #0x02	; 2
      0001C8 04                    3743 	.db #0x04	; 4
      0001C9 04                    3744 	.db #0x04	; 4
      0001CA 08                    3745 	.db #0x08	; 8
      0001CB 08                    3746 	.db #0x08	; 8
      0001CC 04                    3747 	.db #0x04	; 4
      0001CD 04                    3748 	.db #0x04	; 4
      0001CE 00                    3749 	.db #0x00	; 0
      0001CF 00                    3750 	.db #0x00	; 0
      0001D0 00                    3751 	.db #0x00	; 0
      0001D1 00                    3752 	.db #0x00	; 0
      0001D2 00                    3753 	.db #0x00	; 0
      0001D3 00                    3754 	.db #0x00	; 0
      0001D4 00                    3755 	.db #0x00	; 0
      0001D5 00                    3756 	.db #0x00	; 0
      0001D6 00                    3757 	.db #0x00	; 0
      0001D7 00                    3758 	.db #0x00	; 0
      0001D8 00                    3759 	.db #0x00	; 0
      0001D9 00                    3760 	.db #0x00	; 0
      0001DA 00                    3761 	.db #0x00	; 0
      0001DB 00                    3762 	.db #0x00	; 0
      0001DC 00                    3763 	.db #0x00	; 0
      0001DD 00                    3764 	.db #0x00	; 0
      0001DE 00                    3765 	.db #0x00	; 0
      0001DF 00                    3766 	.db #0x00	; 0
      0001E0 00                    3767 	.db #0x00	; 0
      0001E1 00                    3768 	.db #0x00	; 0
      0001E2 00                    3769 	.db #0x00	; 0
      0001E3 00                    3770 	.db #0x00	; 0
      0001E4 00                    3771 	.db #0x00	; 0
      0001E5 00                    3772 	.db #0x00	; 0
      0001E6 00                    3773 	.db #0x00	; 0
      0001E7 00                    3774 	.db #0x00	; 0
      0001E8 00                    3775 	.db #0x00	; 0
      0001E9 00                    3776 	.db #0x00	; 0
      0001EA 00                    3777 	.db #0x00	; 0
      0001EB 00                    3778 	.db #0x00	; 0
      0001EC 00                    3779 	.db #0x00	; 0
      0001ED 00                    3780 	.db #0x00	; 0
      0001EE 00                    3781 	.db #0x00	; 0
      0001EF 00                    3782 	.db #0x00	; 0
      0001F0 00                    3783 	.db #0x00	; 0
      0001F1 00                    3784 	.db #0x00	; 0
      0001F2 00                    3785 	.db #0x00	; 0
      0001F3 00                    3786 	.db #0x00	; 0
      0001F4 00                    3787 	.db #0x00	; 0
      0001F5 00                    3788 	.db #0x00	; 0
      0001F6 00                    3789 	.db #0x00	; 0
      0001F7 00                    3790 	.db #0x00	; 0
      0001F8 00                    3791 	.db #0x00	; 0
      0001F9 00                    3792 	.db #0x00	; 0
      0001FA 00                    3793 	.db #0x00	; 0
      0001FB 00                    3794 	.db #0x00	; 0
      0001FC 00                    3795 	.db #0x00	; 0
      0001FD 00                    3796 	.db #0x00	; 0
      0001FE 00                    3797 	.db #0x00	; 0
      0001FF 00                    3798 	.db #0x00	; 0
      000200                       3799 __xinit__turret_x:
      000200 54 00                 3800 	.dw #0x0054
      000202                       3801 __xinit__turret_y:
      000202 7D 00                 3802 	.dw #0x007d
      000204                       3803 __xinit__shot_fired:
      000204 00                    3804 	.db #0x00	;  0
      000205                       3805 __xinit__sx:
      000205 EC FF                 3806 	.dw #0xffec
      000207                       3807 __xinit__sy:
      000207 EC FF                 3808 	.dw #0xffec
      000209                       3809 __xinit__turret_been_hit:
      000209 00                    3810 	.db #0x00	;  0
      00020A                       3811 __xinit__turret_blast_delay:
      00020A 3C 00                 3812 	.dw #0x003c
      00020C                       3813 __xinit__turret_exp_frame:
      00020C 01 00                 3814 	.dw #0x0001
      00020E                       3815 __xinit__turret_anim_delay:
      00020E 0A 00                 3816 	.dw #0x000a
      000210                       3817 __xinit__explosion_play:
      000210 00                    3818 	.db #0x00	;  0
      000211                       3819 __xinit__invader_x:
      000211 54 00                 3820 	.dw #0x0054
      000213                       3821 __xinit__invader_y:
      000213 28 00                 3822 	.dw #0x0028
      000215                       3823 __xinit__i_anim_delay:
      000215 14 00                 3824 	.dw #0x0014
      000217                       3825 __xinit__inv_frame:
      000217 01 00                 3826 	.dw #0x0001
      000219                       3827 __xinit__ix_speed:
      000219 02 00                 3828 	.dw #0x0002
      00021B                       3829 __xinit__i_dir:
      00021B 01 00                 3830 	.dw #0x0001
      00021D                       3831 __xinit__inv_shot_x:
      00021D A5 00                 3832 	.dw #0x00a5
      00021F                       3833 __xinit__inv_shot_y:
      00021F 90 00                 3834 	.dw #0x0090
      000221                       3835 __xinit__inv_fire_pause:
      000221 B4 00                 3836 	.dw #0x00b4
      000223                       3837 __xinit__inv_fired:
      000223 00                    3838 	.db #0x00	;  0
      000224                       3839 __xinit__been_hit:
      000224 00                    3840 	.db #0x00	;  0
      000225                       3841 __xinit__bx:
      000225 A5 00                 3842 	.dw #0x00a5
      000227                       3843 __xinit__by:
      000227 90 00                 3844 	.dw #0x0090
      000229                       3845 __xinit__blast_delay:
      000229 3C 00                 3846 	.dw #0x003c
      00022B                       3847 __xinit__boom_play:
      00022B 00                    3848 	.db #0x00	;  0
      00022C                       3849 __xinit__score:
      00022C 00 00                 3850 	.dw #0x0000
      00022E                       3851 __xinit__lives:
      00022E 03 00                 3852 	.dw #0x0003
      000230                       3853 __xinit__game_over:
      000230 00                    3854 	.db #0x00	;  0
      000231                       3855 __xinit__been_pressed:
      000231 00                    3856 	.db #0x00	;  0
                                   3857 	.area _CABS (ABS)
